	.section	__TEXT,__text,regular,pure_instructions
	.build_version macos, 11, 0	sdk_version 11, 1
	.globl	__Z12TestOneArrayv      ## -- Begin function _Z12TestOneArrayv
	.p2align	4, 0x90
__Z12TestOneArrayv:                     ## @_Z12TestOneArrayv
	.cfi_startproc
## %bb.0:
	pushq	%rbp
	.cfi_def_cfa_offset 16
	.cfi_offset %rbp, -16
	movq	%rsp, %rbp
	.cfi_def_cfa_register %rbp
	popq	%rbp
	retq
	.cfi_endproc
                                        ## -- End function
	.globl	__Z20GenerateTestOneArrayRKi ## -- Begin function _Z20GenerateTestOneArrayRKi
	.p2align	4, 0x90
__Z20GenerateTestOneArrayRKi:           ## @_Z20GenerateTestOneArrayRKi
	.cfi_startproc
## %bb.0:
	pushq	%rbp
	.cfi_def_cfa_offset 16
	.cfi_offset %rbp, -16
	movq	%rsp, %rbp
	.cfi_def_cfa_register %rbp
	subq	$32, %rsp
	movq	%rdi, -8(%rbp)
	movq	-8(%rbp), %rax
	movslq	(%rax), %rax
	cmpq	$5, %rax
	setb	%cl
	movl	$4, %edx
	mulq	%rdx
	seto	%sil
	orb	%sil, %cl
	testb	$1, %cl
	movq	$-1, %rdi
	cmovneq	%rdi, %rax
	movq	%rax, %rdi
	movq	%rax, -24(%rbp)         ## 8-byte Spill
	callq	__Znam
	xorl	%esi, %esi
	movq	%rax, %rdi
	movl	$15, (%rax)
	movq	%rdi, %r8
	addq	$4, %r8
	movl	$33, 4(%rax)
	addq	$4, %r8
	movl	$44, 8(%rax)
	addq	$4, %r8
	movl	$22, 12(%rax)
	addq	$4, %r8
	movl	$66, 16(%rax)
	addq	$4, %r8
	movq	-24(%rbp), %rax         ## 8-byte Reload
	subq	$20, %rax
	movq	%rdi, -32(%rbp)         ## 8-byte Spill
	movq	%r8, %rdi
	movq	%rax, %rdx
	callq	_memset
	movq	-32(%rbp), %rax         ## 8-byte Reload
	movq	%rax, -16(%rbp)
	movq	-16(%rbp), %rax
	addq	$32, %rsp
	popq	%rbp
	retq
	.cfi_endproc
                                        ## -- End function
	.globl	__Z18TestOneArrayAppendRKii ## -- Begin function _Z18TestOneArrayAppendRKii
	.p2align	4, 0x90
__Z18TestOneArrayAppendRKii:            ## @_Z18TestOneArrayAppendRKii
	.cfi_startproc
## %bb.0:
	pushq	%rbp
	.cfi_def_cfa_offset 16
	.cfi_offset %rbp, -16
	movq	%rsp, %rbp
	.cfi_def_cfa_register %rbp
	subq	$48, %rsp
	movq	%rdi, -8(%rbp)
	movl	%esi, -12(%rbp)
	leaq	-12(%rbp), %rdi
	callq	__Z20GenerateTestOneArrayRKi
	movq	%rax, -24(%rbp)
	movl	-12(%rbp), %ecx
	addl	$1, %ecx
	movslq	%ecx, %rax
	movl	$4, %edx
	mulq	%rdx
	seto	%r8b
	movq	$-1, %rdi
	cmovoq	%rdi, %rax
	movq	%rax, %rdi
	movb	%r8b, -37(%rbp)         ## 1-byte Spill
	callq	__Znam
	movq	%rax, -32(%rbp)
	movl	$0, -36(%rbp)
LBB2_1:                                 ## =>This Inner Loop Header: Depth=1
	movl	-36(%rbp), %eax
	cmpl	-12(%rbp), %eax
	jge	LBB2_4
## %bb.2:                               ##   in Loop: Header=BB2_1 Depth=1
	movq	-24(%rbp), %rax
	movslq	-36(%rbp), %rcx
	movl	(%rax,%rcx,4), %edx
	movq	-32(%rbp), %rax
	movslq	-36(%rbp), %rcx
	movl	%edx, (%rax,%rcx,4)
## %bb.3:                               ##   in Loop: Header=BB2_1 Depth=1
	movl	-36(%rbp), %eax
	addl	$1, %eax
	movl	%eax, -36(%rbp)
	jmp	LBB2_1
LBB2_4:
	movq	-8(%rbp), %rax
	movl	(%rax), %ecx
	movq	-32(%rbp), %rax
	movslq	-12(%rbp), %rdx
	movl	%ecx, (%rax,%rdx,4)
	movq	-24(%rbp), %rax
	cmpq	$0, %rax
	movq	%rax, -48(%rbp)         ## 8-byte Spill
	je	LBB2_6
## %bb.5:
	movq	-48(%rbp), %rax         ## 8-byte Reload
	movq	%rax, %rdi
	callq	__ZdaPv
LBB2_6:
	movq	-32(%rbp), %rax
	addq	$48, %rsp
	popq	%rbp
	retq
	.cfi_endproc
                                        ## -- End function
	.globl	__Z30TakeUnlimitedValuesFromTheUserv ## -- Begin function _Z30TakeUnlimitedValuesFromTheUserv
	.p2align	4, 0x90
__Z30TakeUnlimitedValuesFromTheUserv:   ## @_Z30TakeUnlimitedValuesFromTheUserv
Lfunc_begin0:
	.cfi_startproc
	.cfi_personality 155, ___gxx_personality_v0
	.cfi_lsda 16, Lexception0
## %bb.0:
	pushq	%rbp
	.cfi_def_cfa_offset 16
	.cfi_offset %rbp, -16
	movq	%rsp, %rbp
	.cfi_def_cfa_register %rbp
	subq	$192, %rsp
	leaq	-24(%rbp), %rdi
	callq	__ZNSt3__16vectorIiNS_9allocatorIiEEEC1Ev
	movb	l___const._Z30TakeUnlimitedValuesFromTheUserv._r(%rip), %al
	movb	%al, -32(%rbp)
Ltmp0:
	leaq	-32(%rbp), %rdi
	callq	__ZN1r1xEv
Ltmp1:
	jmp	LBB3_1
LBB3_1:
Ltmp2:
	movq	__ZNSt3__13cinE@GOTPCREL(%rip), %rsi
	leaq	-64(%rbp), %rdi
	callq	__ZNSt3__116istream_iteratorIicNS_11char_traitsIcEElEC1ERNS_13basic_istreamIcS2_EE
Ltmp3:
	jmp	LBB3_2
LBB3_2:
Ltmp4:
	leaq	-80(%rbp), %rdi
	callq	__ZNSt3__116istream_iteratorIicNS_11char_traitsIcEElEC1Ev
Ltmp5:
	jmp	LBB3_3
LBB3_3:
Ltmp6:
	leaq	-24(%rbp), %rdi
	callq	__ZNSt3__1L13back_inserterINS_6vectorIiNS_9allocatorIiEEEEEENS_20back_insert_iteratorIT_EERS6_
Ltmp7:
	movq	%rax, -152(%rbp)        ## 8-byte Spill
	jmp	LBB3_4
LBB3_4:
	movq	-152(%rbp), %rax        ## 8-byte Reload
	movq	%rax, -88(%rbp)
	movq	-64(%rbp), %rdi
	movl	-56(%rbp), %esi
	movq	-80(%rbp), %rdx
	movl	-72(%rbp), %ecx
	movq	-88(%rbp), %r8
Ltmp8:
	callq	__ZNSt3__1L4copyINS_16istream_iteratorIicNS_11char_traitsIcEElEENS_20back_insert_iteratorINS_6vectorIiNS_9allocatorIiEEEEEEEET0_T_SC_SB_
Ltmp9:
	movq	%rax, -160(%rbp)        ## 8-byte Spill
	jmp	LBB3_5
LBB3_5:
	movq	-160(%rbp), %rax        ## 8-byte Reload
	movq	%rax, -96(%rbp)
	leaq	-24(%rbp), %rcx
	movq	%rcx, %rdi
	movq	%rcx, -168(%rbp)        ## 8-byte Spill
	callq	__ZNSt3__16vectorIiNS_9allocatorIiEEE5beginEv
	movq	%rax, -104(%rbp)
	movq	-168(%rbp), %rdi        ## 8-byte Reload
	callq	__ZNSt3__16vectorIiNS_9allocatorIiEEE3endEv
	movq	%rax, -112(%rbp)
	movq	__ZNSt3__14coutE@GOTPCREL(%rip), %rsi
	leaq	L_.str(%rip), %rdx
	leaq	-128(%rbp), %rdi
	callq	__ZNSt3__116ostream_iteratorIicNS_11char_traitsIcEEEC1ERNS_13basic_ostreamIcS2_EEPKc
	movq	-104(%rbp), %rdi
	movq	-112(%rbp), %rsi
	movq	-128(%rbp), %rdx
	movq	-120(%rbp), %rcx
Ltmp10:
	callq	__ZNSt3__1L4copyINS_11__wrap_iterIPiEENS_16ostream_iteratorIicNS_11char_traitsIcEEEEEET0_T_S9_S8_
Ltmp11:
	movq	%rdx, -176(%rbp)        ## 8-byte Spill
	movq	%rax, -184(%rbp)        ## 8-byte Spill
	jmp	LBB3_6
LBB3_6:
	movq	-184(%rbp), %rax        ## 8-byte Reload
	movq	%rax, -144(%rbp)
	movq	-176(%rbp), %rax        ## 8-byte Reload
	movq	%rax, -136(%rbp)
	leaq	-24(%rbp), %rdi
	callq	__ZNSt3__16vectorIiNS_9allocatorIiEEED1Ev
	addq	$192, %rsp
	popq	%rbp
	retq
LBB3_7:
Ltmp12:
                                        ## kill: def $edx killed $edx killed $rdx
	movq	%rax, -40(%rbp)
	movl	%edx, -44(%rbp)
	leaq	-24(%rbp), %rdi
	callq	__ZNSt3__16vectorIiNS_9allocatorIiEEED1Ev
## %bb.8:
	movq	-40(%rbp), %rdi
	callq	__Unwind_Resume
	ud2
Lfunc_end0:
	.cfi_endproc
	.section	__TEXT,__gcc_except_tab
	.p2align	2
GCC_except_table3:
Lexception0:
	.byte	255                     ## @LPStart Encoding = omit
	.byte	255                     ## @TType Encoding = omit
	.byte	1                       ## Call site Encoding = uleb128
	.uleb128 Lcst_end0-Lcst_begin0
Lcst_begin0:
	.uleb128 Ltmp0-Lfunc_begin0     ## >> Call Site 1 <<
	.uleb128 Ltmp11-Ltmp0           ##   Call between Ltmp0 and Ltmp11
	.uleb128 Ltmp12-Lfunc_begin0    ##     jumps to Ltmp12
	.byte	0                       ##   On action: cleanup
	.uleb128 Ltmp11-Lfunc_begin0    ## >> Call Site 2 <<
	.uleb128 Lfunc_end0-Ltmp11      ##   Call between Ltmp11 and Lfunc_end0
	.byte	0                       ##     has no landing pad
	.byte	0                       ##   On action: cleanup
Lcst_end0:
	.p2align	2
                                        ## -- End function
	.section	__TEXT,__text,regular,pure_instructions
	.p2align	4, 0x90         ## -- Begin function _ZNSt3__16vectorIiNS_9allocatorIiEEEC1Ev
__ZNSt3__16vectorIiNS_9allocatorIiEEEC1Ev: ## @_ZNSt3__16vectorIiNS_9allocatorIiEEEC1Ev
	.cfi_startproc
## %bb.0:
	pushq	%rbp
	.cfi_def_cfa_offset 16
	.cfi_offset %rbp, -16
	movq	%rsp, %rbp
	.cfi_def_cfa_register %rbp
	subq	$16, %rsp
	movq	%rdi, -8(%rbp)
	movq	-8(%rbp), %rdi
	callq	__ZNSt3__16vectorIiNS_9allocatorIiEEEC2Ev
	addq	$16, %rsp
	popq	%rbp
	retq
	.cfi_endproc
                                        ## -- End function
	.globl	__ZN1r1xEv              ## -- Begin function _ZN1r1xEv
	.weak_definition	__ZN1r1xEv
	.p2align	4, 0x90
__ZN1r1xEv:                             ## @_ZN1r1xEv
	.cfi_startproc
## %bb.0:
	pushq	%rbp
	.cfi_def_cfa_offset 16
	.cfi_offset %rbp, -16
	movq	%rsp, %rbp
	.cfi_def_cfa_register %rbp
	subq	$16, %rsp
	movq	__ZNSt3__14coutE@GOTPCREL(%rip), %rax
	movq	%rdi, -8(%rbp)
	movq	%rax, %rdi
	leaq	L_.str.77(%rip), %rsi
	callq	__ZNSt3__1lsINS_11char_traitsIcEEEERNS_13basic_ostreamIcT_EES6_PKc
	movq	%rax, %rdi
	leaq	__ZNSt3__1L4endlIcNS_11char_traitsIcEEEERNS_13basic_ostreamIT_T0_EES7_(%rip), %rsi
	callq	__ZNSt3__113basic_ostreamIcNS_11char_traitsIcEEElsEPFRS3_S4_E
	addq	$16, %rsp
	popq	%rbp
	retq
	.cfi_endproc
                                        ## -- End function
	.p2align	4, 0x90         ## -- Begin function _ZNSt3__1L4copyINS_16istream_iteratorIicNS_11char_traitsIcEElEENS_20back_insert_iteratorINS_6vectorIiNS_9allocatorIiEEEEEEEET0_T_SC_SB_
__ZNSt3__1L4copyINS_16istream_iteratorIicNS_11char_traitsIcEElEENS_20back_insert_iteratorINS_6vectorIiNS_9allocatorIiEEEEEEEET0_T_SC_SB_: ## @_ZNSt3__1L4copyINS_16istream_iteratorIicNS_11char_traitsIcEElEENS_20back_insert_iteratorINS_6vectorIiNS_9allocatorIiEEEEEEEET0_T_SC_SB_
	.cfi_startproc
## %bb.0:
	pushq	%rbp
	.cfi_def_cfa_offset 16
	.cfi_offset %rbp, -16
	movq	%rsp, %rbp
	.cfi_def_cfa_register %rbp
	subq	$128, %rsp
	movq	%rdi, -24(%rbp)
	movl	%esi, -16(%rbp)
	movq	%rdx, -40(%rbp)
	movl	%ecx, -32(%rbp)
	movq	%r8, -48(%rbp)
	movq	-24(%rbp), %rax
	movq	%rax, -80(%rbp)
	movq	-16(%rbp), %rax
	movq	%rax, -72(%rbp)
	movq	-80(%rbp), %rdi
	movl	-72(%rbp), %esi
	callq	__ZNSt3__1L13__unwrap_iterINS_16istream_iteratorIicNS_11char_traitsIcEElEEEET_S5_
	movq	%rax, -64(%rbp)
	movl	%edx, -56(%rbp)
	movq	-40(%rbp), %rax
	movq	%rax, -112(%rbp)
	movq	-32(%rbp), %rax
	movq	%rax, -104(%rbp)
	movq	-112(%rbp), %rdi
	movl	-104(%rbp), %esi
	callq	__ZNSt3__1L13__unwrap_iterINS_16istream_iteratorIicNS_11char_traitsIcEElEEEET_S5_
	movq	%rax, -96(%rbp)
	movl	%edx, -88(%rbp)
	movq	-48(%rbp), %rax
	movq	%rax, -128(%rbp)
	movq	-128(%rbp), %rdi
	callq	__ZNSt3__1L13__unwrap_iterINS_20back_insert_iteratorINS_6vectorIiNS_9allocatorIiEEEEEEEET_S7_
	movq	%rax, -120(%rbp)
	movq	-64(%rbp), %rdi
	movl	-56(%rbp), %esi
	movq	-96(%rbp), %rdx
	movl	-88(%rbp), %ecx
	movq	-120(%rbp), %r8
	callq	__ZNSt3__1L6__copyINS_16istream_iteratorIicNS_11char_traitsIcEElEENS_20back_insert_iteratorINS_6vectorIiNS_9allocatorIiEEEEEEEET0_T_SC_SB_
	movq	%rax, -8(%rbp)
	movq	-8(%rbp), %rax
	addq	$128, %rsp
	popq	%rbp
	retq
	.cfi_endproc
                                        ## -- End function
	.p2align	4, 0x90         ## -- Begin function _ZNSt3__116istream_iteratorIicNS_11char_traitsIcEElEC1ERNS_13basic_istreamIcS2_EE
__ZNSt3__116istream_iteratorIicNS_11char_traitsIcEElEC1ERNS_13basic_istreamIcS2_EE: ## @_ZNSt3__116istream_iteratorIicNS_11char_traitsIcEElEC1ERNS_13basic_istreamIcS2_EE
	.cfi_startproc
## %bb.0:
	pushq	%rbp
	.cfi_def_cfa_offset 16
	.cfi_offset %rbp, -16
	movq	%rsp, %rbp
	.cfi_def_cfa_register %rbp
	subq	$16, %rsp
	movq	%rdi, -8(%rbp)
	movq	%rsi, -16(%rbp)
	movq	-8(%rbp), %rdi
	movq	-16(%rbp), %rsi
	callq	__ZNSt3__116istream_iteratorIicNS_11char_traitsIcEElEC2ERNS_13basic_istreamIcS2_EE
	addq	$16, %rsp
	popq	%rbp
	retq
	.cfi_endproc
                                        ## -- End function
	.p2align	4, 0x90         ## -- Begin function _ZNSt3__116istream_iteratorIicNS_11char_traitsIcEElEC1Ev
__ZNSt3__116istream_iteratorIicNS_11char_traitsIcEElEC1Ev: ## @_ZNSt3__116istream_iteratorIicNS_11char_traitsIcEElEC1Ev
	.cfi_startproc
## %bb.0:
	pushq	%rbp
	.cfi_def_cfa_offset 16
	.cfi_offset %rbp, -16
	movq	%rsp, %rbp
	.cfi_def_cfa_register %rbp
	subq	$16, %rsp
	movq	%rdi, -8(%rbp)
	movq	-8(%rbp), %rdi
	callq	__ZNSt3__116istream_iteratorIicNS_11char_traitsIcEElEC2Ev
	addq	$16, %rsp
	popq	%rbp
	retq
	.cfi_endproc
                                        ## -- End function
	.p2align	4, 0x90         ## -- Begin function _ZNSt3__1L13back_inserterINS_6vectorIiNS_9allocatorIiEEEEEENS_20back_insert_iteratorIT_EERS6_
__ZNSt3__1L13back_inserterINS_6vectorIiNS_9allocatorIiEEEEEENS_20back_insert_iteratorIT_EERS6_: ## @_ZNSt3__1L13back_inserterINS_6vectorIiNS_9allocatorIiEEEEEENS_20back_insert_iteratorIT_EERS6_
	.cfi_startproc
## %bb.0:
	pushq	%rbp
	.cfi_def_cfa_offset 16
	.cfi_offset %rbp, -16
	movq	%rsp, %rbp
	.cfi_def_cfa_register %rbp
	subq	$16, %rsp
	movq	%rdi, -16(%rbp)
	movq	-16(%rbp), %rsi
	leaq	-8(%rbp), %rdi
	callq	__ZNSt3__120back_insert_iteratorINS_6vectorIiNS_9allocatorIiEEEEEC1ERS4_
	movq	-8(%rbp), %rax
	addq	$16, %rsp
	popq	%rbp
	retq
	.cfi_endproc
                                        ## -- End function
	.p2align	4, 0x90         ## -- Begin function _ZNSt3__1L4copyINS_11__wrap_iterIPiEENS_16ostream_iteratorIicNS_11char_traitsIcEEEEEET0_T_S9_S8_
__ZNSt3__1L4copyINS_11__wrap_iterIPiEENS_16ostream_iteratorIicNS_11char_traitsIcEEEEEET0_T_S9_S8_: ## @_ZNSt3__1L4copyINS_11__wrap_iterIPiEENS_16ostream_iteratorIicNS_11char_traitsIcEEEEEET0_T_S9_S8_
	.cfi_startproc
## %bb.0:
	pushq	%rbp
	.cfi_def_cfa_offset 16
	.cfi_offset %rbp, -16
	movq	%rsp, %rbp
	.cfi_def_cfa_register %rbp
	subq	$112, %rsp
	movq	%rdi, -24(%rbp)
	movq	%rsi, -32(%rbp)
	movq	%rdx, -48(%rbp)
	movq	%rcx, -40(%rbp)
	movq	-24(%rbp), %rax
	movq	%rax, -56(%rbp)
	movq	-56(%rbp), %rdi
	callq	__ZNSt3__1L13__unwrap_iterIiEENS_9enable_ifIXsr28is_trivially_copy_assignableIT_EE5valueEPS2_E4typeENS_11__wrap_iterIS3_EE
	movq	-32(%rbp), %rcx
	movq	%rcx, -64(%rbp)
	movq	-64(%rbp), %rdi
	movq	%rax, -104(%rbp)        ## 8-byte Spill
	callq	__ZNSt3__1L13__unwrap_iterIiEENS_9enable_ifIXsr28is_trivially_copy_assignableIT_EE5valueEPS2_E4typeENS_11__wrap_iterIS3_EE
	movq	-48(%rbp), %rcx
	movq	-40(%rbp), %rdx
	movq	%rdx, -88(%rbp)
	movq	%rcx, -96(%rbp)
	movq	-96(%rbp), %rdi
	movq	-88(%rbp), %rsi
	movq	%rax, -112(%rbp)        ## 8-byte Spill
	callq	__ZNSt3__1L13__unwrap_iterINS_16ostream_iteratorIicNS_11char_traitsIcEEEEEET_S5_
	movq	%rax, -80(%rbp)
	movq	%rdx, -72(%rbp)
	movq	-80(%rbp), %rdx
	movq	-72(%rbp), %rcx
	movq	-104(%rbp), %rdi        ## 8-byte Reload
	movq	-112(%rbp), %rsi        ## 8-byte Reload
	callq	__ZNSt3__1L6__copyIPiNS_16ostream_iteratorIicNS_11char_traitsIcEEEEEET0_T_S7_S6_
	movq	%rax, -16(%rbp)
	movq	%rdx, -8(%rbp)
	movq	-16(%rbp), %rax
	movq	-8(%rbp), %rdx
	addq	$112, %rsp
	popq	%rbp
	retq
	.cfi_endproc
                                        ## -- End function
	.p2align	4, 0x90         ## -- Begin function _ZNSt3__16vectorIiNS_9allocatorIiEEE5beginEv
__ZNSt3__16vectorIiNS_9allocatorIiEEE5beginEv: ## @_ZNSt3__16vectorIiNS_9allocatorIiEEE5beginEv
	.cfi_startproc
## %bb.0:
	pushq	%rbp
	.cfi_def_cfa_offset 16
	.cfi_offset %rbp, -16
	movq	%rsp, %rbp
	.cfi_def_cfa_register %rbp
	subq	$16, %rsp
	movq	%rdi, -16(%rbp)
	movq	-16(%rbp), %rax
	movq	(%rax), %rsi
	movq	%rax, %rdi
	callq	__ZNSt3__16vectorIiNS_9allocatorIiEEE11__make_iterEPi
	movq	%rax, -8(%rbp)
	movq	-8(%rbp), %rax
	addq	$16, %rsp
	popq	%rbp
	retq
	.cfi_endproc
                                        ## -- End function
	.p2align	4, 0x90         ## -- Begin function _ZNSt3__16vectorIiNS_9allocatorIiEEE3endEv
__ZNSt3__16vectorIiNS_9allocatorIiEEE3endEv: ## @_ZNSt3__16vectorIiNS_9allocatorIiEEE3endEv
	.cfi_startproc
## %bb.0:
	pushq	%rbp
	.cfi_def_cfa_offset 16
	.cfi_offset %rbp, -16
	movq	%rsp, %rbp
	.cfi_def_cfa_register %rbp
	subq	$16, %rsp
	movq	%rdi, -16(%rbp)
	movq	-16(%rbp), %rax
	movq	8(%rax), %rsi
	movq	%rax, %rdi
	callq	__ZNSt3__16vectorIiNS_9allocatorIiEEE11__make_iterEPi
	movq	%rax, -8(%rbp)
	movq	-8(%rbp), %rax
	addq	$16, %rsp
	popq	%rbp
	retq
	.cfi_endproc
                                        ## -- End function
	.p2align	4, 0x90         ## -- Begin function _ZNSt3__116ostream_iteratorIicNS_11char_traitsIcEEEC1ERNS_13basic_ostreamIcS2_EEPKc
__ZNSt3__116ostream_iteratorIicNS_11char_traitsIcEEEC1ERNS_13basic_ostreamIcS2_EEPKc: ## @_ZNSt3__116ostream_iteratorIicNS_11char_traitsIcEEEC1ERNS_13basic_ostreamIcS2_EEPKc
	.cfi_startproc
## %bb.0:
	pushq	%rbp
	.cfi_def_cfa_offset 16
	.cfi_offset %rbp, -16
	movq	%rsp, %rbp
	.cfi_def_cfa_register %rbp
	subq	$32, %rsp
	movq	%rdi, -8(%rbp)
	movq	%rsi, -16(%rbp)
	movq	%rdx, -24(%rbp)
	movq	-8(%rbp), %rdi
	movq	-16(%rbp), %rsi
	movq	-24(%rbp), %rdx
	callq	__ZNSt3__116ostream_iteratorIicNS_11char_traitsIcEEEC2ERNS_13basic_ostreamIcS2_EEPKc
	addq	$32, %rsp
	popq	%rbp
	retq
	.cfi_endproc
                                        ## -- End function
	.p2align	4, 0x90         ## -- Begin function _ZNSt3__16vectorIiNS_9allocatorIiEEED1Ev
__ZNSt3__16vectorIiNS_9allocatorIiEEED1Ev: ## @_ZNSt3__16vectorIiNS_9allocatorIiEEED1Ev
	.cfi_startproc
## %bb.0:
	pushq	%rbp
	.cfi_def_cfa_offset 16
	.cfi_offset %rbp, -16
	movq	%rsp, %rbp
	.cfi_def_cfa_register %rbp
	subq	$16, %rsp
	movq	%rdi, -8(%rbp)
	movq	-8(%rbp), %rdi
	callq	__ZNSt3__16vectorIiNS_9allocatorIiEEED2Ev
	addq	$16, %rsp
	popq	%rbp
	retq
	.cfi_endproc
                                        ## -- End function
	.globl	__Z18TestOneArrayInsertRKiii ## -- Begin function _Z18TestOneArrayInsertRKiii
	.p2align	4, 0x90
__Z18TestOneArrayInsertRKiii:           ## @_Z18TestOneArrayInsertRKiii
	.cfi_startproc
## %bb.0:
	pushq	%rbp
	.cfi_def_cfa_offset 16
	.cfi_offset %rbp, -16
	movq	%rsp, %rbp
	.cfi_def_cfa_register %rbp
	subq	$64, %rsp
	movq	%rdi, -16(%rbp)
	movl	%esi, -20(%rbp)
	movl	%edx, -24(%rbp)
	cmpl	$0, -20(%rbp)
	jle	LBB15_2
## %bb.1:
	movl	-20(%rbp), %eax
	movl	-24(%rbp), %ecx
	addl	$1, %ecx
	cmpl	%ecx, %eax
	jle	LBB15_3
LBB15_2:
	movq	$0, -8(%rbp)
	jmp	LBB15_16
LBB15_3:
	leaq	-24(%rbp), %rdi
	callq	__Z20GenerateTestOneArrayRKi
	movq	%rax, -32(%rbp)
	movl	-24(%rbp), %ecx
	addl	$1, %ecx
	movslq	%ecx, %rax
	movl	$4, %edx
	mulq	%rdx
	seto	%sil
	movq	$-1, %rdi
	cmovoq	%rdi, %rax
	movq	%rax, %rdi
	movb	%sil, -45(%rbp)         ## 1-byte Spill
	callq	__Znam
	movq	%rax, -40(%rbp)
	movl	-20(%rbp), %ecx
	addl	$-1, %ecx
	movl	%ecx, -20(%rbp)
	movl	$0, -44(%rbp)
LBB15_4:                                ## =>This Inner Loop Header: Depth=1
	movl	-44(%rbp), %eax
	movl	-24(%rbp), %ecx
	addl	$1, %ecx
	cmpl	%ecx, %eax
	jge	LBB15_13
## %bb.5:                               ##   in Loop: Header=BB15_4 Depth=1
	movl	-44(%rbp), %eax
	cmpl	-20(%rbp), %eax
	jge	LBB15_7
## %bb.6:                               ##   in Loop: Header=BB15_4 Depth=1
	movq	-32(%rbp), %rax
	movslq	-44(%rbp), %rcx
	movl	(%rax,%rcx,4), %edx
	movq	-40(%rbp), %rax
	movslq	-44(%rbp), %rcx
	movl	%edx, (%rax,%rcx,4)
	jmp	LBB15_11
LBB15_7:                                ##   in Loop: Header=BB15_4 Depth=1
	movl	-44(%rbp), %eax
	cmpl	-20(%rbp), %eax
	jne	LBB15_9
## %bb.8:                               ##   in Loop: Header=BB15_4 Depth=1
	movq	-16(%rbp), %rax
	movl	(%rax), %ecx
	movq	-40(%rbp), %rax
	movslq	-44(%rbp), %rdx
	movl	%ecx, (%rax,%rdx,4)
	jmp	LBB15_10
LBB15_9:                                ##   in Loop: Header=BB15_4 Depth=1
	movq	-32(%rbp), %rax
	movl	-44(%rbp), %ecx
	subl	$1, %ecx
	movslq	%ecx, %rdx
	movl	(%rax,%rdx,4), %ecx
	movq	-40(%rbp), %rax
	movslq	-44(%rbp), %rdx
	movl	%ecx, (%rax,%rdx,4)
LBB15_10:                               ##   in Loop: Header=BB15_4 Depth=1
	jmp	LBB15_11
LBB15_11:                               ##   in Loop: Header=BB15_4 Depth=1
	jmp	LBB15_12
LBB15_12:                               ##   in Loop: Header=BB15_4 Depth=1
	movl	-44(%rbp), %eax
	addl	$1, %eax
	movl	%eax, -44(%rbp)
	jmp	LBB15_4
LBB15_13:
	movq	-32(%rbp), %rax
	cmpq	$0, %rax
	movq	%rax, -56(%rbp)         ## 8-byte Spill
	je	LBB15_15
## %bb.14:
	movq	-56(%rbp), %rax         ## 8-byte Reload
	movq	%rax, %rdi
	callq	__ZdaPv
LBB15_15:
	movq	-40(%rbp), %rax
	movq	%rax, -8(%rbp)
LBB15_16:
	movq	-8(%rbp), %rax
	addq	$64, %rsp
	popq	%rbp
	retq
	.cfi_endproc
                                        ## -- End function
	.globl	__Z18TestOneArrayDeleteii ## -- Begin function _Z18TestOneArrayDeleteii
	.p2align	4, 0x90
__Z18TestOneArrayDeleteii:              ## @_Z18TestOneArrayDeleteii
	.cfi_startproc
## %bb.0:
	pushq	%rbp
	.cfi_def_cfa_offset 16
	.cfi_offset %rbp, -16
	movq	%rsp, %rbp
	.cfi_def_cfa_register %rbp
	subq	$48, %rsp
	movl	%edi, -12(%rbp)
	movl	%esi, -16(%rbp)
	cmpl	$0, -12(%rbp)
	jle	LBB16_2
## %bb.1:
	movl	-12(%rbp), %eax
	cmpl	-16(%rbp), %eax
	jle	LBB16_3
LBB16_2:
	movq	$0, -8(%rbp)
	jmp	LBB16_16
LBB16_3:
	leaq	-16(%rbp), %rdi
	callq	__Z20GenerateTestOneArrayRKi
	movq	%rax, -24(%rbp)
	movl	-16(%rbp), %ecx
	subl	$1, %ecx
	movslq	%ecx, %rax
	movl	$4, %edx
	mulq	%rdx
	seto	%sil
	movq	$-1, %rdi
	cmovoq	%rdi, %rax
	movq	%rax, %rdi
	movb	%sil, -37(%rbp)         ## 1-byte Spill
	callq	__Znam
	movq	%rax, -32(%rbp)
	movl	-12(%rbp), %ecx
	addl	$-1, %ecx
	movl	%ecx, -12(%rbp)
	movl	$0, -36(%rbp)
LBB16_4:                                ## =>This Inner Loop Header: Depth=1
	movl	-36(%rbp), %eax
	cmpl	-16(%rbp), %eax
	jge	LBB16_13
## %bb.5:                               ##   in Loop: Header=BB16_4 Depth=1
	movl	-36(%rbp), %eax
	cmpl	-12(%rbp), %eax
	jge	LBB16_7
## %bb.6:                               ##   in Loop: Header=BB16_4 Depth=1
	movq	-24(%rbp), %rax
	movslq	-36(%rbp), %rcx
	movl	(%rax,%rcx,4), %edx
	movq	-32(%rbp), %rax
	movslq	-36(%rbp), %rcx
	movl	%edx, (%rax,%rcx,4)
	jmp	LBB16_11
LBB16_7:                                ##   in Loop: Header=BB16_4 Depth=1
	movl	-12(%rbp), %eax
	cmpl	-36(%rbp), %eax
	jne	LBB16_9
## %bb.8:                               ##   in Loop: Header=BB16_4 Depth=1
	jmp	LBB16_12
LBB16_9:                                ##   in Loop: Header=BB16_4 Depth=1
	movq	-24(%rbp), %rax
	movslq	-36(%rbp), %rcx
	movl	(%rax,%rcx,4), %edx
	movq	-32(%rbp), %rax
	movl	-36(%rbp), %esi
	subl	$1, %esi
	movslq	%esi, %rcx
	movl	%edx, (%rax,%rcx,4)
## %bb.10:                              ##   in Loop: Header=BB16_4 Depth=1
	jmp	LBB16_11
LBB16_11:                               ##   in Loop: Header=BB16_4 Depth=1
	jmp	LBB16_12
LBB16_12:                               ##   in Loop: Header=BB16_4 Depth=1
	movl	-36(%rbp), %eax
	addl	$1, %eax
	movl	%eax, -36(%rbp)
	jmp	LBB16_4
LBB16_13:
	movq	-24(%rbp), %rax
	cmpq	$0, %rax
	movq	%rax, -48(%rbp)         ## 8-byte Spill
	je	LBB16_15
## %bb.14:
	movq	-48(%rbp), %rax         ## 8-byte Reload
	movq	%rax, %rdi
	callq	__ZdaPv
LBB16_15:
	movq	-32(%rbp), %rax
	movq	%rax, -8(%rbp)
LBB16_16:
	movq	-8(%rbp), %rax
	addq	$48, %rsp
	popq	%rbp
	retq
	.cfi_endproc
                                        ## -- End function
	.globl	__Z5test1v              ## -- Begin function _Z5test1v
	.p2align	4, 0x90
__Z5test1v:                             ## @_Z5test1v
Lfunc_begin1:
	.cfi_startproc
	.cfi_personality 155, ___gxx_personality_v0
	.cfi_lsda 16, Lexception1
## %bb.0:
	pushq	%rbp
	.cfi_def_cfa_offset 16
	.cfi_offset %rbp, -16
	movq	%rsp, %rbp
	.cfi_def_cfa_register %rbp
	subq	$48, %rsp
	movq	%rdi, %rax
	movq	%rdi, -8(%rbp)
	movb	$0, -9(%rbp)
	movq	%rdi, -40(%rbp)         ## 8-byte Spill
	movq	%rax, -48(%rbp)         ## 8-byte Spill
	callq	__ZNSt3__16vectorIiNS_9allocatorIiEEEC1Ev
	movl	$1, -16(%rbp)
Ltmp13:
	leaq	-16(%rbp), %rsi
	movq	-40(%rbp), %rdi         ## 8-byte Reload
	callq	__ZNSt3__16vectorIiNS_9allocatorIiEEE12emplace_backIJiEEERiDpOT_
Ltmp14:
	jmp	LBB17_1
LBB17_1:
	movl	$3, -32(%rbp)
Ltmp15:
	leaq	-32(%rbp), %rsi
	movq	-40(%rbp), %rdi         ## 8-byte Reload
	callq	__ZNSt3__16vectorIiNS_9allocatorIiEEE12emplace_backIJiEEERiDpOT_
Ltmp16:
	jmp	LBB17_2
LBB17_2:
	movb	$1, -9(%rbp)
	testb	$1, -9(%rbp)
	jne	LBB17_5
	jmp	LBB17_4
LBB17_3:
Ltmp17:
                                        ## kill: def $edx killed $edx killed $rdx
	movq	%rax, -24(%rbp)
	movl	%edx, -28(%rbp)
	movq	-40(%rbp), %rdi         ## 8-byte Reload
	callq	__ZNSt3__16vectorIiNS_9allocatorIiEEED1Ev
	jmp	LBB17_6
LBB17_4:
	movq	-40(%rbp), %rdi         ## 8-byte Reload
	callq	__ZNSt3__16vectorIiNS_9allocatorIiEEED1Ev
LBB17_5:
	movq	-48(%rbp), %rax         ## 8-byte Reload
	addq	$48, %rsp
	popq	%rbp
	retq
LBB17_6:
	movq	-24(%rbp), %rdi
	callq	__Unwind_Resume
	ud2
Lfunc_end1:
	.cfi_endproc
	.section	__TEXT,__gcc_except_tab
	.p2align	2
GCC_except_table17:
Lexception1:
	.byte	255                     ## @LPStart Encoding = omit
	.byte	255                     ## @TType Encoding = omit
	.byte	1                       ## Call site Encoding = uleb128
	.uleb128 Lcst_end1-Lcst_begin1
Lcst_begin1:
	.uleb128 Ltmp13-Lfunc_begin1    ## >> Call Site 1 <<
	.uleb128 Ltmp16-Ltmp13          ##   Call between Ltmp13 and Ltmp16
	.uleb128 Ltmp17-Lfunc_begin1    ##     jumps to Ltmp17
	.byte	0                       ##   On action: cleanup
	.uleb128 Ltmp16-Lfunc_begin1    ## >> Call Site 2 <<
	.uleb128 Lfunc_end1-Ltmp16      ##   Call between Ltmp16 and Lfunc_end1
	.byte	0                       ##     has no landing pad
	.byte	0                       ##   On action: cleanup
Lcst_end1:
	.p2align	2
                                        ## -- End function
	.section	__TEXT,__text,regular,pure_instructions
	.p2align	4, 0x90         ## -- Begin function _ZNSt3__16vectorIiNS_9allocatorIiEEE12emplace_backIJiEEERiDpOT_
__ZNSt3__16vectorIiNS_9allocatorIiEEE12emplace_backIJiEEERiDpOT_: ## @_ZNSt3__16vectorIiNS_9allocatorIiEEE12emplace_backIJiEEERiDpOT_
	.cfi_startproc
## %bb.0:
	pushq	%rbp
	.cfi_def_cfa_offset 16
	.cfi_offset %rbp, -16
	movq	%rsp, %rbp
	.cfi_def_cfa_register %rbp
	subq	$32, %rsp
	movq	%rdi, -8(%rbp)
	movq	%rsi, -16(%rbp)
	movq	-8(%rbp), %rax
	movq	8(%rax), %rcx
	movq	%rax, %rdx
	movq	%rdx, %rdi
	movq	%rax, -24(%rbp)         ## 8-byte Spill
	movq	%rcx, -32(%rbp)         ## 8-byte Spill
	callq	__ZNSt3__113__vector_baseIiNS_9allocatorIiEEE9__end_capEv
	movq	-32(%rbp), %rcx         ## 8-byte Reload
	cmpq	(%rax), %rcx
	jae	LBB18_2
## %bb.1:
	movq	-16(%rbp), %rdi
	callq	__ZNSt3__1L7forwardIiEEOT_RNS_16remove_referenceIS1_E4typeE
	movq	-24(%rbp), %rdi         ## 8-byte Reload
	movq	%rax, %rsi
	callq	__ZNSt3__16vectorIiNS_9allocatorIiEEE22__construct_one_at_endIJiEEEvDpOT_
	jmp	LBB18_3
LBB18_2:
	movq	-16(%rbp), %rdi
	callq	__ZNSt3__1L7forwardIiEEOT_RNS_16remove_referenceIS1_E4typeE
	movq	-24(%rbp), %rdi         ## 8-byte Reload
	movq	%rax, %rsi
	callq	__ZNSt3__16vectorIiNS_9allocatorIiEEE24__emplace_back_slow_pathIJiEEEvDpOT_
LBB18_3:
	movq	-24(%rbp), %rdi         ## 8-byte Reload
	callq	__ZNSt3__16vectorIiNS_9allocatorIiEEE4backEv
	addq	$32, %rsp
	popq	%rbp
	retq
	.cfi_endproc
                                        ## -- End function
	.globl	__Z5test2RNSt3__16vectorIiNS_9allocatorIiEEEE ## -- Begin function _Z5test2RNSt3__16vectorIiNS_9allocatorIiEEEE
	.p2align	4, 0x90
__Z5test2RNSt3__16vectorIiNS_9allocatorIiEEEE: ## @_Z5test2RNSt3__16vectorIiNS_9allocatorIiEEEE
	.cfi_startproc
## %bb.0:
	pushq	%rbp
	.cfi_def_cfa_offset 16
	.cfi_offset %rbp, -16
	movq	%rsp, %rbp
	.cfi_def_cfa_register %rbp
	subq	$32, %rsp
	movq	%rdi, -8(%rbp)
	movq	-8(%rbp), %rdi
	movl	$4, -12(%rbp)
	leaq	-12(%rbp), %rsi
	callq	__ZNSt3__16vectorIiNS_9allocatorIiEEE12emplace_backIJiEEERiDpOT_
	movq	-8(%rbp), %rdi
	movl	$5, -16(%rbp)
	leaq	-16(%rbp), %rsi
	movq	%rax, -24(%rbp)         ## 8-byte Spill
	callq	__ZNSt3__16vectorIiNS_9allocatorIiEEE12emplace_backIJiEEERiDpOT_
	movq	-8(%rbp), %rcx
	movq	%rax, -32(%rbp)         ## 8-byte Spill
	movq	%rcx, %rax
	addq	$32, %rsp
	popq	%rbp
	retq
	.cfi_endproc
                                        ## -- End function
	.globl	__Z5test3RNSt3__16vectorIiNS_9allocatorIiEEEE ## -- Begin function _Z5test3RNSt3__16vectorIiNS_9allocatorIiEEEE
	.p2align	4, 0x90
__Z5test3RNSt3__16vectorIiNS_9allocatorIiEEEE: ## @_Z5test3RNSt3__16vectorIiNS_9allocatorIiEEEE
	.cfi_startproc
## %bb.0:
	pushq	%rbp
	.cfi_def_cfa_offset 16
	.cfi_offset %rbp, -16
	movq	%rsp, %rbp
	.cfi_def_cfa_register %rbp
	subq	$32, %rsp
	movq	%rdi, -8(%rbp)
	movq	-8(%rbp), %rdi
	movl	$6, -12(%rbp)
	leaq	-12(%rbp), %rsi
	callq	__ZNSt3__16vectorIiNS_9allocatorIiEEE12emplace_backIJiEEERiDpOT_
	movq	-8(%rbp), %rdi
	movl	$7, -16(%rbp)
	leaq	-16(%rbp), %rsi
	movq	%rax, -24(%rbp)         ## 8-byte Spill
	callq	__ZNSt3__16vectorIiNS_9allocatorIiEEE12emplace_backIJiEEERiDpOT_
	addq	$32, %rsp
	popq	%rbp
	retq
	.cfi_endproc
                                        ## -- End function
	.globl	__Z5test4NSt3__16vectorIiNS_9allocatorIiEEEE ## -- Begin function _Z5test4NSt3__16vectorIiNS_9allocatorIiEEEE
	.p2align	4, 0x90
__Z5test4NSt3__16vectorIiNS_9allocatorIiEEEE: ## @_Z5test4NSt3__16vectorIiNS_9allocatorIiEEEE
	.cfi_startproc
## %bb.0:
	pushq	%rbp
	.cfi_def_cfa_offset 16
	.cfi_offset %rbp, -16
	movq	%rsp, %rbp
	.cfi_def_cfa_register %rbp
	subq	$32, %rsp
	movl	$60, -4(%rbp)
	movq	%rdi, -16(%rbp)         ## 8-byte Spill
	leaq	-4(%rbp), %rsi
	callq	__ZNSt3__16vectorIiNS_9allocatorIiEEE12emplace_backIJiEEERiDpOT_
	movl	$70, -8(%rbp)
	movq	-16(%rbp), %rdi         ## 8-byte Reload
	leaq	-8(%rbp), %rsi
	movq	%rax, -24(%rbp)         ## 8-byte Spill
	callq	__ZNSt3__16vectorIiNS_9allocatorIiEEE12emplace_backIJiEEERiDpOT_
	addq	$32, %rsp
	popq	%rbp
	retq
	.cfi_endproc
                                        ## -- End function
	.globl	__Z11bubble_sortPii     ## -- Begin function _Z11bubble_sortPii
	.p2align	4, 0x90
__Z11bubble_sortPii:                    ## @_Z11bubble_sortPii
	.cfi_startproc
## %bb.0:
	pushq	%rbp
	.cfi_def_cfa_offset 16
	.cfi_offset %rbp, -16
	movq	%rsp, %rbp
	.cfi_def_cfa_register %rbp
	movq	%rdi, -8(%rbp)
	movl	%esi, -12(%rbp)
	movl	$0, -16(%rbp)
LBB22_1:                                ## =>This Loop Header: Depth=1
                                        ##     Child Loop BB22_3 Depth 2
	movl	-16(%rbp), %eax
	cmpl	-12(%rbp), %eax
	jge	LBB22_10
## %bb.2:                               ##   in Loop: Header=BB22_1 Depth=1
	movl	$0, -20(%rbp)
LBB22_3:                                ##   Parent Loop BB22_1 Depth=1
                                        ## =>  This Inner Loop Header: Depth=2
	movl	-20(%rbp), %eax
	movl	-12(%rbp), %ecx
	subl	$1, %ecx
	subl	-16(%rbp), %ecx
	cmpl	%ecx, %eax
	jge	LBB22_8
## %bb.4:                               ##   in Loop: Header=BB22_3 Depth=2
	movq	-8(%rbp), %rax
	movslq	-20(%rbp), %rcx
	movl	(%rax,%rcx,4), %edx
	movq	-8(%rbp), %rax
	movl	-20(%rbp), %esi
	addl	$1, %esi
	movslq	%esi, %rcx
	cmpl	(%rax,%rcx,4), %edx
	jle	LBB22_6
## %bb.5:                               ##   in Loop: Header=BB22_3 Depth=2
	movq	-8(%rbp), %rax
	movslq	-20(%rbp), %rcx
	movl	(%rax,%rcx,4), %edx
	movl	%edx, -24(%rbp)
	movq	-8(%rbp), %rax
	movl	-20(%rbp), %edx
	addl	$1, %edx
	movslq	%edx, %rcx
	movl	(%rax,%rcx,4), %edx
	movq	-8(%rbp), %rax
	movslq	-20(%rbp), %rcx
	movl	%edx, (%rax,%rcx,4)
	movl	-24(%rbp), %edx
	movq	-8(%rbp), %rax
	movl	-20(%rbp), %esi
	addl	$1, %esi
	movslq	%esi, %rcx
	movl	%edx, (%rax,%rcx,4)
LBB22_6:                                ##   in Loop: Header=BB22_3 Depth=2
	jmp	LBB22_7
LBB22_7:                                ##   in Loop: Header=BB22_3 Depth=2
	movl	-20(%rbp), %eax
	addl	$1, %eax
	movl	%eax, -20(%rbp)
	jmp	LBB22_3
LBB22_8:                                ##   in Loop: Header=BB22_1 Depth=1
	jmp	LBB22_9
LBB22_9:                                ##   in Loop: Header=BB22_1 Depth=1
	movl	-16(%rbp), %eax
	addl	$1, %eax
	movl	%eax, -16(%rbp)
	jmp	LBB22_1
LBB22_10:
	popq	%rbp
	retq
	.cfi_endproc
                                        ## -- End function
	.globl	__Z10addNewNodeP4NodeRKNSt3__112basic_stringIcNS1_11char_traitsIcEENS1_9allocatorIcEEEE ## -- Begin function _Z10addNewNodeP4NodeRKNSt3__112basic_stringIcNS1_11char_traitsIcEENS1_9allocatorIcEEEE
	.p2align	4, 0x90
__Z10addNewNodeP4NodeRKNSt3__112basic_stringIcNS1_11char_traitsIcEENS1_9allocatorIcEEEE: ## @_Z10addNewNodeP4NodeRKNSt3__112basic_stringIcNS1_11char_traitsIcEENS1_9allocatorIcEEEE
	.cfi_startproc
## %bb.0:
	pushq	%rbp
	.cfi_def_cfa_offset 16
	.cfi_offset %rbp, -16
	movq	%rsp, %rbp
	.cfi_def_cfa_register %rbp
	subq	$48, %rsp
	movq	%rdi, -16(%rbp)
	movq	%rsi, -24(%rbp)
	cmpq	$0, -16(%rbp)
	je	LBB23_2
## %bb.1:
	movl	$32, %edi
	callq	__Znwm
	xorl	%esi, %esi
	movq	%rax, %rcx
	movq	%rcx, %rdi
	movl	$32, %edx
	movq	%rax, -40(%rbp)         ## 8-byte Spill
	callq	_memset
	movq	-40(%rbp), %rdi         ## 8-byte Reload
	callq	__ZN4NodeC1Ev
	movq	-40(%rbp), %rax         ## 8-byte Reload
	movq	%rax, -32(%rbp)
	movq	-24(%rbp), %rsi
	movq	-32(%rbp), %rdi
	callq	__ZNSt3__112basic_stringIcNS_11char_traitsIcEENS_9allocatorIcEEEaSERKS5_
	movq	-32(%rbp), %rcx
	movq	-16(%rbp), %rdx
	movq	%rcx, 24(%rdx)
	movq	-32(%rbp), %rcx
	movq	$0, 24(%rcx)
	movq	-32(%rbp), %rcx
	movq	%rcx, __tail(%rip)
	movq	-32(%rbp), %rcx
	movq	%rcx, -8(%rbp)
	jmp	LBB23_3
LBB23_2:
	movl	$32, %edi
	callq	__Znwm
	xorl	%esi, %esi
	movq	%rax, %rcx
	movq	%rcx, %rdi
	movl	$32, %edx
	movq	%rax, -48(%rbp)         ## 8-byte Spill
	callq	_memset
	movq	-48(%rbp), %rdi         ## 8-byte Reload
	callq	__ZN4NodeC1Ev
	movq	-48(%rbp), %rax         ## 8-byte Reload
	movq	%rax, __head(%rip)
	movq	-24(%rbp), %rsi
	movq	__head(%rip), %rdi
	callq	__ZNSt3__112basic_stringIcNS_11char_traitsIcEENS_9allocatorIcEEEaSERKS5_
	movq	__head(%rip), %rcx
	movq	$0, 24(%rcx)
	movq	__head(%rip), %rcx
	movq	%rcx, __tail(%rip)
	movq	__head(%rip), %rcx
	movq	%rcx, -8(%rbp)
LBB23_3:
	movq	-8(%rbp), %rax
	addq	$48, %rsp
	popq	%rbp
	retq
	.cfi_endproc
                                        ## -- End function
	.globl	__ZN4NodeC1Ev           ## -- Begin function _ZN4NodeC1Ev
	.weak_def_can_be_hidden	__ZN4NodeC1Ev
	.p2align	4, 0x90
__ZN4NodeC1Ev:                          ## @_ZN4NodeC1Ev
	.cfi_startproc
## %bb.0:
	pushq	%rbp
	.cfi_def_cfa_offset 16
	.cfi_offset %rbp, -16
	movq	%rsp, %rbp
	.cfi_def_cfa_register %rbp
	subq	$16, %rsp
	movq	%rdi, -8(%rbp)
	movq	-8(%rbp), %rdi
	callq	__ZN4NodeC2Ev
	addq	$16, %rsp
	popq	%rbp
	retq
	.cfi_endproc
                                        ## -- End function
	.globl	__Z18PrintAllLinkedListP4Node ## -- Begin function _Z18PrintAllLinkedListP4Node
	.p2align	4, 0x90
__Z18PrintAllLinkedListP4Node:          ## @_Z18PrintAllLinkedListP4Node
	.cfi_startproc
## %bb.0:
	pushq	%rbp
	.cfi_def_cfa_offset 16
	.cfi_offset %rbp, -16
	movq	%rsp, %rbp
	.cfi_def_cfa_register %rbp
	subq	$16, %rsp
	movq	%rdi, -8(%rbp)
	movq	-8(%rbp), %rax
	movq	%rax, -16(%rbp)
LBB25_1:                                ## =>This Inner Loop Header: Depth=1
	cmpq	$0, -16(%rbp)
	je	LBB25_3
## %bb.2:                               ##   in Loop: Header=BB25_1 Depth=1
	movq	__ZNSt3__14coutE@GOTPCREL(%rip), %rdi
	movq	-16(%rbp), %rsi
	callq	__ZNSt3__1lsIcNS_11char_traitsIcEENS_9allocatorIcEEEERNS_13basic_ostreamIT_T0_EES9_RKNS_12basic_stringIS6_S7_T1_EE
	movq	%rax, %rdi
	leaq	__ZNSt3__1L4endlIcNS_11char_traitsIcEEEERNS_13basic_ostreamIT_T0_EES7_(%rip), %rsi
	callq	__ZNSt3__113basic_ostreamIcNS_11char_traitsIcEEElsEPFRS3_S4_E
	movq	-16(%rbp), %rcx
	movq	24(%rcx), %rcx
	movq	%rcx, -16(%rbp)
	jmp	LBB25_1
LBB25_3:
	addq	$16, %rsp
	popq	%rbp
	retq
	.cfi_endproc
                                        ## -- End function
	.globl	__ZNSt3__1lsIcNS_11char_traitsIcEENS_9allocatorIcEEEERNS_13basic_ostreamIT_T0_EES9_RKNS_12basic_stringIS6_S7_T1_EE ## -- Begin function _ZNSt3__1lsIcNS_11char_traitsIcEENS_9allocatorIcEEEERNS_13basic_ostreamIT_T0_EES9_RKNS_12basic_stringIS6_S7_T1_EE
	.weak_definition	__ZNSt3__1lsIcNS_11char_traitsIcEENS_9allocatorIcEEEERNS_13basic_ostreamIT_T0_EES9_RKNS_12basic_stringIS6_S7_T1_EE
	.p2align	4, 0x90
__ZNSt3__1lsIcNS_11char_traitsIcEENS_9allocatorIcEEEERNS_13basic_ostreamIT_T0_EES9_RKNS_12basic_stringIS6_S7_T1_EE: ## @_ZNSt3__1lsIcNS_11char_traitsIcEENS_9allocatorIcEEEERNS_13basic_ostreamIT_T0_EES9_RKNS_12basic_stringIS6_S7_T1_EE
	.cfi_startproc
## %bb.0:
	pushq	%rbp
	.cfi_def_cfa_offset 16
	.cfi_offset %rbp, -16
	movq	%rsp, %rbp
	.cfi_def_cfa_register %rbp
	subq	$32, %rsp
	movq	%rdi, -8(%rbp)
	movq	%rsi, -16(%rbp)
	movq	-8(%rbp), %rdi
	movq	-16(%rbp), %rax
	movq	%rdi, -24(%rbp)         ## 8-byte Spill
	movq	%rax, %rdi
	callq	__ZNKSt3__112basic_stringIcNS_11char_traitsIcEENS_9allocatorIcEEE4dataEv
	movq	-16(%rbp), %rdi
	movq	%rax, -32(%rbp)         ## 8-byte Spill
	callq	__ZNKSt3__112basic_stringIcNS_11char_traitsIcEENS_9allocatorIcEEE4sizeEv
	movq	-24(%rbp), %rdi         ## 8-byte Reload
	movq	-32(%rbp), %rsi         ## 8-byte Reload
	movq	%rax, %rdx
	callq	__ZNSt3__124__put_character_sequenceIcNS_11char_traitsIcEEEERNS_13basic_ostreamIT_T0_EES7_PKS4_m
	addq	$32, %rsp
	popq	%rbp
	retq
	.cfi_endproc
                                        ## -- End function
	.p2align	4, 0x90         ## -- Begin function _ZNSt3__113basic_ostreamIcNS_11char_traitsIcEEElsEPFRS3_S4_E
__ZNSt3__113basic_ostreamIcNS_11char_traitsIcEEElsEPFRS3_S4_E: ## @_ZNSt3__113basic_ostreamIcNS_11char_traitsIcEEElsEPFRS3_S4_E
	.cfi_startproc
## %bb.0:
	pushq	%rbp
	.cfi_def_cfa_offset 16
	.cfi_offset %rbp, -16
	movq	%rsp, %rbp
	.cfi_def_cfa_register %rbp
	subq	$16, %rsp
	movq	%rdi, -8(%rbp)
	movq	%rsi, -16(%rbp)
	movq	-8(%rbp), %rdi
	callq	*-16(%rbp)
	addq	$16, %rsp
	popq	%rbp
	retq
	.cfi_endproc
                                        ## -- End function
	.p2align	4, 0x90         ## -- Begin function _ZNSt3__1L4endlIcNS_11char_traitsIcEEEERNS_13basic_ostreamIT_T0_EES7_
__ZNSt3__1L4endlIcNS_11char_traitsIcEEEERNS_13basic_ostreamIT_T0_EES7_: ## @_ZNSt3__1L4endlIcNS_11char_traitsIcEEEERNS_13basic_ostreamIT_T0_EES7_
	.cfi_startproc
## %bb.0:
	pushq	%rbp
	.cfi_def_cfa_offset 16
	.cfi_offset %rbp, -16
	movq	%rsp, %rbp
	.cfi_def_cfa_register %rbp
	subq	$32, %rsp
	movq	%rdi, -8(%rbp)
	movq	-8(%rbp), %rdi
	movq	-8(%rbp), %rax
	movq	(%rax), %rcx
	movq	-24(%rcx), %rcx
	addq	%rcx, %rax
	movq	%rdi, -16(%rbp)         ## 8-byte Spill
	movq	%rax, %rdi
	movl	$10, %esi
	callq	__ZNKSt3__19basic_iosIcNS_11char_traitsIcEEE5widenEc
	movq	-16(%rbp), %rdi         ## 8-byte Reload
	movsbl	%al, %esi
	callq	__ZNSt3__113basic_ostreamIcNS_11char_traitsIcEEE3putEc
	movq	-8(%rbp), %rdi
	movq	%rax, -24(%rbp)         ## 8-byte Spill
	callq	__ZNSt3__113basic_ostreamIcNS_11char_traitsIcEEE5flushEv
	movq	-8(%rbp), %rcx
	movq	%rax, -32(%rbp)         ## 8-byte Spill
	movq	%rcx, %rax
	addq	$32, %rsp
	popq	%rbp
	retq
	.cfi_endproc
                                        ## -- End function
	.globl	__Z17FreeAllLinkedListv ## -- Begin function _Z17FreeAllLinkedListv
	.p2align	4, 0x90
__Z17FreeAllLinkedListv:                ## @_Z17FreeAllLinkedListv
	.cfi_startproc
## %bb.0:
	pushq	%rbp
	.cfi_def_cfa_offset 16
	.cfi_offset %rbp, -16
	movq	%rsp, %rbp
	.cfi_def_cfa_register %rbp
	subq	$32, %rsp
	movq	__head(%rip), %rax
	movq	%rax, -8(%rbp)
LBB29_1:                                ## =>This Inner Loop Header: Depth=1
	cmpq	$0, -8(%rbp)
	je	LBB29_5
## %bb.2:                               ##   in Loop: Header=BB29_1 Depth=1
	movq	-8(%rbp), %rax
	movq	%rax, -16(%rbp)
	movq	-8(%rbp), %rax
	movq	24(%rax), %rax
	movq	%rax, -8(%rbp)
	movq	-16(%rbp), %rax
	cmpq	$0, %rax
	movq	%rax, -24(%rbp)         ## 8-byte Spill
	je	LBB29_4
## %bb.3:                               ##   in Loop: Header=BB29_1 Depth=1
	movq	-24(%rbp), %rdi         ## 8-byte Reload
	callq	__ZN4NodeD1Ev
	movq	-24(%rbp), %rax         ## 8-byte Reload
	movq	%rax, %rdi
	callq	__ZdlPv
LBB29_4:                                ##   in Loop: Header=BB29_1 Depth=1
	jmp	LBB29_1
LBB29_5:
	movq	__ZNSt3__14coutE@GOTPCREL(%rip), %rdi
	movq	$0, __head(%rip)
	movq	$0, __tail(%rip)
	leaq	L_.str.1(%rip), %rsi
	callq	__ZNSt3__1lsINS_11char_traitsIcEEEERNS_13basic_ostreamIcT_EES6_PKc
	movq	%rax, %rdi
	leaq	__ZNSt3__1L4endlIcNS_11char_traitsIcEEEERNS_13basic_ostreamIT_T0_EES7_(%rip), %rsi
	callq	__ZNSt3__113basic_ostreamIcNS_11char_traitsIcEEElsEPFRS3_S4_E
	addq	$32, %rsp
	popq	%rbp
	retq
	.cfi_endproc
                                        ## -- End function
	.globl	__ZN4NodeD1Ev           ## -- Begin function _ZN4NodeD1Ev
	.weak_def_can_be_hidden	__ZN4NodeD1Ev
	.p2align	4, 0x90
__ZN4NodeD1Ev:                          ## @_ZN4NodeD1Ev
	.cfi_startproc
## %bb.0:
	pushq	%rbp
	.cfi_def_cfa_offset 16
	.cfi_offset %rbp, -16
	movq	%rsp, %rbp
	.cfi_def_cfa_register %rbp
	subq	$16, %rsp
	movq	%rdi, -8(%rbp)
	movq	-8(%rbp), %rdi
	callq	__ZN4NodeD2Ev
	addq	$16, %rsp
	popq	%rbp
	retq
	.cfi_endproc
                                        ## -- End function
	.globl	__ZNSt3__1lsINS_11char_traitsIcEEEERNS_13basic_ostreamIcT_EES6_PKc ## -- Begin function _ZNSt3__1lsINS_11char_traitsIcEEEERNS_13basic_ostreamIcT_EES6_PKc
	.weak_definition	__ZNSt3__1lsINS_11char_traitsIcEEEERNS_13basic_ostreamIcT_EES6_PKc
	.p2align	4, 0x90
__ZNSt3__1lsINS_11char_traitsIcEEEERNS_13basic_ostreamIcT_EES6_PKc: ## @_ZNSt3__1lsINS_11char_traitsIcEEEERNS_13basic_ostreamIcT_EES6_PKc
	.cfi_startproc
## %bb.0:
	pushq	%rbp
	.cfi_def_cfa_offset 16
	.cfi_offset %rbp, -16
	movq	%rsp, %rbp
	.cfi_def_cfa_register %rbp
	subq	$32, %rsp
	movq	%rdi, -8(%rbp)
	movq	%rsi, -16(%rbp)
	movq	-8(%rbp), %rdi
	movq	-16(%rbp), %rsi
	movq	-16(%rbp), %rax
	movq	%rdi, -24(%rbp)         ## 8-byte Spill
	movq	%rax, %rdi
	movq	%rsi, -32(%rbp)         ## 8-byte Spill
	callq	__ZNSt3__111char_traitsIcE6lengthEPKc
	movq	-24(%rbp), %rdi         ## 8-byte Reload
	movq	-32(%rbp), %rsi         ## 8-byte Reload
	movq	%rax, %rdx
	callq	__ZNSt3__124__put_character_sequenceIcNS_11char_traitsIcEEEERNS_13basic_ostreamIT_T0_EES7_PKS4_m
	addq	$32, %rsp
	popq	%rbp
	retq
	.cfi_endproc
                                        ## -- End function
	.globl	__Z7sortArrPii          ## -- Begin function _Z7sortArrPii
	.p2align	4, 0x90
__Z7sortArrPii:                         ## @_Z7sortArrPii
	.cfi_startproc
## %bb.0:
	pushq	%rbp
	.cfi_def_cfa_offset 16
	.cfi_offset %rbp, -16
	movq	%rsp, %rbp
	.cfi_def_cfa_register %rbp
	movq	%rdi, -8(%rbp)
	movl	%esi, -12(%rbp)
	movl	$0, -16(%rbp)
LBB32_1:                                ## =>This Loop Header: Depth=1
                                        ##     Child Loop BB32_3 Depth 2
	movl	-16(%rbp), %eax
	cmpl	-12(%rbp), %eax
	jge	LBB32_10
## %bb.2:                               ##   in Loop: Header=BB32_1 Depth=1
	movl	$0, -20(%rbp)
LBB32_3:                                ##   Parent Loop BB32_1 Depth=1
                                        ## =>  This Inner Loop Header: Depth=2
	movl	-20(%rbp), %eax
	movl	-12(%rbp), %ecx
	subl	-16(%rbp), %ecx
	subl	$1, %ecx
	cmpl	%ecx, %eax
	jge	LBB32_8
## %bb.4:                               ##   in Loop: Header=BB32_3 Depth=2
	movq	-8(%rbp), %rax
	movslq	-20(%rbp), %rcx
	movl	(%rax,%rcx,4), %edx
	movq	-8(%rbp), %rax
	movl	-20(%rbp), %esi
	addl	$1, %esi
	movslq	%esi, %rcx
	cmpl	(%rax,%rcx,4), %edx
	jle	LBB32_6
## %bb.5:                               ##   in Loop: Header=BB32_3 Depth=2
	movq	-8(%rbp), %rax
	movslq	-20(%rbp), %rcx
	movl	(%rax,%rcx,4), %edx
	movl	%edx, -24(%rbp)
	movq	-8(%rbp), %rax
	movl	-20(%rbp), %edx
	addl	$1, %edx
	movslq	%edx, %rcx
	movl	(%rax,%rcx,4), %edx
	movq	-8(%rbp), %rax
	movslq	-20(%rbp), %rcx
	movl	%edx, (%rax,%rcx,4)
	movl	-24(%rbp), %edx
	movq	-8(%rbp), %rax
	movl	-20(%rbp), %esi
	addl	$1, %esi
	movslq	%esi, %rcx
	movl	%edx, (%rax,%rcx,4)
LBB32_6:                                ##   in Loop: Header=BB32_3 Depth=2
	jmp	LBB32_7
LBB32_7:                                ##   in Loop: Header=BB32_3 Depth=2
	movl	-20(%rbp), %eax
	addl	$1, %eax
	movl	%eax, -20(%rbp)
	jmp	LBB32_3
LBB32_8:                                ##   in Loop: Header=BB32_1 Depth=1
	jmp	LBB32_9
LBB32_9:                                ##   in Loop: Header=BB32_1 Depth=1
	movl	-16(%rbp), %eax
	addl	$1, %eax
	movl	%eax, -16(%rbp)
	jmp	LBB32_1
LBB32_10:
	popq	%rbp
	retq
	.cfi_endproc
                                        ## -- End function
	.globl	__Z12BinarySearchPKiii  ## -- Begin function _Z12BinarySearchPKiii
	.p2align	4, 0x90
__Z12BinarySearchPKiii:                 ## @_Z12BinarySearchPKiii
	.cfi_startproc
## %bb.0:
	pushq	%rbp
	.cfi_def_cfa_offset 16
	.cfi_offset %rbp, -16
	movq	%rsp, %rbp
	.cfi_def_cfa_register %rbp
	movq	%rdi, -16(%rbp)
	movl	%esi, -20(%rbp)
	movl	%edx, -24(%rbp)
	cmpl	$0, -20(%rbp)
	jne	LBB33_2
## %bb.1:
	movl	$-1, -4(%rbp)
	jmp	LBB33_11
LBB33_2:
	movl	$0, -28(%rbp)
	movl	-20(%rbp), %eax
	subl	$1, %eax
	movl	%eax, -32(%rbp)
LBB33_3:                                ## =>This Inner Loop Header: Depth=1
	movl	-28(%rbp), %eax
	cmpl	-32(%rbp), %eax
	jg	LBB33_10
## %bb.4:                               ##   in Loop: Header=BB33_3 Depth=1
	movl	-28(%rbp), %eax
	addl	-32(%rbp), %eax
	cltd
	movl	$2, %ecx
	idivl	%ecx
	movl	%eax, -36(%rbp)
	movq	-16(%rbp), %rsi
	movslq	-36(%rbp), %rdi
	movl	(%rsi,%rdi,4), %eax
	cmpl	-24(%rbp), %eax
	jne	LBB33_6
## %bb.5:
	movl	-36(%rbp), %eax
	movl	%eax, -4(%rbp)
	jmp	LBB33_11
LBB33_6:                                ##   in Loop: Header=BB33_3 Depth=1
	movl	-24(%rbp), %eax
	movq	-16(%rbp), %rcx
	movslq	-36(%rbp), %rdx
	cmpl	(%rcx,%rdx,4), %eax
	jge	LBB33_8
## %bb.7:                               ##   in Loop: Header=BB33_3 Depth=1
	movl	-36(%rbp), %eax
	addl	$-1, %eax
	movl	%eax, -36(%rbp)
	movl	%eax, -32(%rbp)
	jmp	LBB33_9
LBB33_8:                                ##   in Loop: Header=BB33_3 Depth=1
	movl	-36(%rbp), %eax
	addl	$1, %eax
	movl	%eax, -36(%rbp)
	movl	%eax, -28(%rbp)
LBB33_9:                                ##   in Loop: Header=BB33_3 Depth=1
	jmp	LBB33_3
LBB33_10:
	movl	$-1, -4(%rbp)
LBB33_11:
	movl	-4(%rbp), %eax
	popq	%rbp
	retq
	.cfi_endproc
                                        ## -- End function
	.globl	__Z12rotateToLeftPiii   ## -- Begin function _Z12rotateToLeftPiii
	.p2align	4, 0x90
__Z12rotateToLeftPiii:                  ## @_Z12rotateToLeftPiii
	.cfi_startproc
## %bb.0:
	pushq	%rbp
	.cfi_def_cfa_offset 16
	.cfi_offset %rbp, -16
	movq	%rsp, %rbp
	.cfi_def_cfa_register %rbp
	movq	%rdi, -8(%rbp)
	movl	%esi, -12(%rbp)
	movl	%edx, -16(%rbp)
	cmpl	$0, -12(%rbp)
	je	LBB34_2
## %bb.1:
	cmpl	$0, -16(%rbp)
	jg	LBB34_3
LBB34_2:
	jmp	LBB34_10
LBB34_3:
	jmp	LBB34_4
LBB34_4:                                ## =>This Loop Header: Depth=1
                                        ##     Child Loop BB34_6 Depth 2
	movl	-16(%rbp), %eax
	movl	%eax, %ecx
	addl	$-1, %ecx
	movl	%ecx, -16(%rbp)
	cmpl	$0, %eax
	je	LBB34_10
## %bb.5:                               ##   in Loop: Header=BB34_4 Depth=1
	movq	-8(%rbp), %rax
	movl	(%rax), %ecx
	movl	%ecx, -20(%rbp)
	movl	$0, -24(%rbp)
LBB34_6:                                ##   Parent Loop BB34_4 Depth=1
                                        ## =>  This Inner Loop Header: Depth=2
	movl	-24(%rbp), %eax
	movl	-12(%rbp), %ecx
	subl	$1, %ecx
	cmpl	%ecx, %eax
	jge	LBB34_9
## %bb.7:                               ##   in Loop: Header=BB34_6 Depth=2
	movq	-8(%rbp), %rax
	movl	-24(%rbp), %ecx
	addl	$1, %ecx
	movslq	%ecx, %rdx
	movl	(%rax,%rdx,4), %ecx
	movq	-8(%rbp), %rax
	movslq	-24(%rbp), %rdx
	movl	%ecx, (%rax,%rdx,4)
## %bb.8:                               ##   in Loop: Header=BB34_6 Depth=2
	movl	-24(%rbp), %eax
	addl	$1, %eax
	movl	%eax, -24(%rbp)
	jmp	LBB34_6
LBB34_9:                                ##   in Loop: Header=BB34_4 Depth=1
	movl	-20(%rbp), %eax
	movq	-8(%rbp), %rcx
	movl	-12(%rbp), %edx
	subl	$1, %edx
	movslq	%edx, %rsi
	movl	%eax, (%rcx,%rsi,4)
	jmp	LBB34_4
LBB34_10:
	popq	%rbp
	retq
	.cfi_endproc
                                        ## -- End function
	.globl	__Z13rotateToRightPiii  ## -- Begin function _Z13rotateToRightPiii
	.p2align	4, 0x90
__Z13rotateToRightPiii:                 ## @_Z13rotateToRightPiii
	.cfi_startproc
## %bb.0:
	pushq	%rbp
	.cfi_def_cfa_offset 16
	.cfi_offset %rbp, -16
	movq	%rsp, %rbp
	.cfi_def_cfa_register %rbp
	movq	%rdi, -8(%rbp)
	movl	%esi, -12(%rbp)
	movl	%edx, -16(%rbp)
	cmpl	$0, -12(%rbp)
	je	LBB35_2
## %bb.1:
	cmpl	$0, -16(%rbp)
	jg	LBB35_3
LBB35_2:
	jmp	LBB35_10
LBB35_3:
	jmp	LBB35_4
LBB35_4:                                ## =>This Loop Header: Depth=1
                                        ##     Child Loop BB35_6 Depth 2
	movl	-16(%rbp), %eax
	movl	%eax, %ecx
	addl	$-1, %ecx
	movl	%ecx, -16(%rbp)
	cmpl	$0, %eax
	je	LBB35_10
## %bb.5:                               ##   in Loop: Header=BB35_4 Depth=1
	movq	-8(%rbp), %rax
	movl	-12(%rbp), %ecx
	subl	$1, %ecx
	movslq	%ecx, %rdx
	movl	(%rax,%rdx,4), %ecx
	movl	%ecx, -20(%rbp)
	movl	-12(%rbp), %ecx
	subl	$1, %ecx
	movl	%ecx, -24(%rbp)
LBB35_6:                                ##   Parent Loop BB35_4 Depth=1
                                        ## =>  This Inner Loop Header: Depth=2
	cmpl	$0, -24(%rbp)
	jle	LBB35_9
## %bb.7:                               ##   in Loop: Header=BB35_6 Depth=2
	movq	-8(%rbp), %rax
	movl	-24(%rbp), %ecx
	subl	$1, %ecx
	movslq	%ecx, %rdx
	movl	(%rax,%rdx,4), %ecx
	movq	-8(%rbp), %rax
	movslq	-24(%rbp), %rdx
	movl	%ecx, (%rax,%rdx,4)
## %bb.8:                               ##   in Loop: Header=BB35_6 Depth=2
	movl	-24(%rbp), %eax
	addl	$-1, %eax
	movl	%eax, -24(%rbp)
	jmp	LBB35_6
LBB35_9:                                ##   in Loop: Header=BB35_4 Depth=1
	movl	-20(%rbp), %eax
	movq	-8(%rbp), %rcx
	movl	%eax, (%rcx)
	jmp	LBB35_4
LBB35_10:
	popq	%rbp
	retq
	.cfi_endproc
                                        ## -- End function
	.globl	__Z14maxSubArraySumRKNSt3__16vectorIiNS_9allocatorIiEEEE ## -- Begin function _Z14maxSubArraySumRKNSt3__16vectorIiNS_9allocatorIiEEEE
	.p2align	4, 0x90
__Z14maxSubArraySumRKNSt3__16vectorIiNS_9allocatorIiEEEE: ## @_Z14maxSubArraySumRKNSt3__16vectorIiNS_9allocatorIiEEEE
	.cfi_startproc
## %bb.0:
	pushq	%rbp
	.cfi_def_cfa_offset 16
	.cfi_offset %rbp, -16
	movq	%rsp, %rbp
	.cfi_def_cfa_register %rbp
	subq	$48, %rsp
	movq	%rdi, -8(%rbp)
	movl	$0, -12(%rbp)
	movl	$0, -16(%rbp)
	movq	$0, -24(%rbp)
LBB36_1:                                ## =>This Inner Loop Header: Depth=1
	movq	-24(%rbp), %rax
	movq	-8(%rbp), %rdi
	movq	%rax, -32(%rbp)         ## 8-byte Spill
	callq	__ZNKSt3__16vectorIiNS_9allocatorIiEEE4sizeEv
	movq	-32(%rbp), %rcx         ## 8-byte Reload
	cmpq	%rax, %rcx
	jae	LBB36_11
## %bb.2:                               ##   in Loop: Header=BB36_1 Depth=1
	movq	-8(%rbp), %rdi
	movq	-24(%rbp), %rsi
	callq	__ZNKSt3__16vectorIiNS_9allocatorIiEEEixEm
	cmpl	$0, (%rax)
	jle	LBB36_4
## %bb.3:                               ##   in Loop: Header=BB36_1 Depth=1
	movl	-16(%rbp), %eax
	movq	-8(%rbp), %rdi
	movq	-24(%rbp), %rsi
	movl	%eax, -36(%rbp)         ## 4-byte Spill
	callq	__ZNKSt3__16vectorIiNS_9allocatorIiEEEixEm
	movl	-36(%rbp), %ecx         ## 4-byte Reload
	addl	(%rax), %ecx
	movl	%ecx, -16(%rbp)
	jmp	LBB36_5
LBB36_4:                                ##   in Loop: Header=BB36_1 Depth=1
	movl	$0, -16(%rbp)
LBB36_5:                                ##   in Loop: Header=BB36_1 Depth=1
	cmpl	$0, -16(%rbp)
	jge	LBB36_7
## %bb.6:                               ##   in Loop: Header=BB36_1 Depth=1
	movl	$0, -16(%rbp)
LBB36_7:                                ##   in Loop: Header=BB36_1 Depth=1
	movl	-12(%rbp), %eax
	cmpl	-16(%rbp), %eax
	jge	LBB36_9
## %bb.8:                               ##   in Loop: Header=BB36_1 Depth=1
	movl	-16(%rbp), %eax
	movl	%eax, -12(%rbp)
LBB36_9:                                ##   in Loop: Header=BB36_1 Depth=1
	jmp	LBB36_10
LBB36_10:                               ##   in Loop: Header=BB36_1 Depth=1
	movq	-24(%rbp), %rax
	addq	$1, %rax
	movq	%rax, -24(%rbp)
	jmp	LBB36_1
LBB36_11:
	movl	-12(%rbp), %eax
	addq	$48, %rsp
	popq	%rbp
	retq
	.cfi_endproc
                                        ## -- End function
	.p2align	4, 0x90         ## -- Begin function _ZNKSt3__16vectorIiNS_9allocatorIiEEE4sizeEv
__ZNKSt3__16vectorIiNS_9allocatorIiEEE4sizeEv: ## @_ZNKSt3__16vectorIiNS_9allocatorIiEEE4sizeEv
	.cfi_startproc
## %bb.0:
	pushq	%rbp
	.cfi_def_cfa_offset 16
	.cfi_offset %rbp, -16
	movq	%rsp, %rbp
	.cfi_def_cfa_register %rbp
	movq	%rdi, -8(%rbp)
	movq	-8(%rbp), %rax
	movq	8(%rax), %rcx
	movq	(%rax), %rax
	subq	%rax, %rcx
	sarq	$2, %rcx
	movq	%rcx, %rax
	popq	%rbp
	retq
	.cfi_endproc
                                        ## -- End function
	.p2align	4, 0x90         ## -- Begin function _ZNKSt3__16vectorIiNS_9allocatorIiEEEixEm
__ZNKSt3__16vectorIiNS_9allocatorIiEEEixEm: ## @_ZNKSt3__16vectorIiNS_9allocatorIiEEEixEm
	.cfi_startproc
## %bb.0:
	pushq	%rbp
	.cfi_def_cfa_offset 16
	.cfi_offset %rbp, -16
	movq	%rsp, %rbp
	.cfi_def_cfa_register %rbp
	movq	%rdi, -8(%rbp)
	movq	%rsi, -16(%rbp)
	movq	-8(%rbp), %rax
	movq	(%rax), %rax
	movq	-16(%rbp), %rcx
	shlq	$2, %rcx
	addq	%rcx, %rax
	popq	%rbp
	retq
	.cfi_endproc
                                        ## -- End function
	.globl	__Z20simpleDoublerForEvenPii ## -- Begin function _Z20simpleDoublerForEvenPii
	.p2align	4, 0x90
__Z20simpleDoublerForEvenPii:           ## @_Z20simpleDoublerForEvenPii
	.cfi_startproc
## %bb.0:
	pushq	%rbp
	.cfi_def_cfa_offset 16
	.cfi_offset %rbp, -16
	movq	%rsp, %rbp
	.cfi_def_cfa_register %rbp
	movq	%rdi, -8(%rbp)
	movl	%esi, -12(%rbp)
	movl	-12(%rbp), %eax
	subl	$1, %eax
	movl	%eax, -16(%rbp)
	movl	-12(%rbp), %eax
	subl	$1, %eax
	movl	%eax, -20(%rbp)
LBB39_1:                                ## =>This Inner Loop Header: Depth=1
	cmpl	$0, -20(%rbp)
	jl	LBB39_8
## %bb.2:                               ##   in Loop: Header=BB39_1 Depth=1
	movq	-8(%rbp), %rax
	movslq	-20(%rbp), %rcx
	cmpl	$-1, (%rax,%rcx,4)
	jne	LBB39_4
## %bb.3:                               ##   in Loop: Header=BB39_1 Depth=1
	jmp	LBB39_7
LBB39_4:                                ##   in Loop: Header=BB39_1 Depth=1
	movq	-8(%rbp), %rax
	movslq	-20(%rbp), %rcx
	movl	(%rax,%rcx,4), %edx
	movq	-8(%rbp), %rax
	movslq	-16(%rbp), %rcx
	movl	%edx, (%rax,%rcx,4)
	movq	-8(%rbp), %rax
	movslq	-20(%rbp), %rcx
	movl	(%rax,%rcx,4), %eax
	cltd
	movl	$2, %esi
	idivl	%esi
	cmpl	$0, %edx
	jne	LBB39_6
## %bb.5:                               ##   in Loop: Header=BB39_1 Depth=1
	movq	-8(%rbp), %rax
	movslq	-20(%rbp), %rcx
	movl	(%rax,%rcx,4), %edx
	movq	-8(%rbp), %rax
	movl	-16(%rbp), %esi
	subl	$1, %esi
	movslq	%esi, %rcx
	movl	%edx, (%rax,%rcx,4)
	movl	-16(%rbp), %edx
	addl	$-1, %edx
	movl	%edx, -16(%rbp)
LBB39_6:                                ##   in Loop: Header=BB39_1 Depth=1
	movl	-16(%rbp), %eax
	addl	$-1, %eax
	movl	%eax, -16(%rbp)
LBB39_7:                                ##   in Loop: Header=BB39_1 Depth=1
	movl	-20(%rbp), %eax
	addl	$-1, %eax
	movl	%eax, -20(%rbp)
	jmp	LBB39_1
LBB39_8:
	popq	%rbp
	retq
	.cfi_endproc
                                        ## -- End function
	.globl	__Z22simpleZeroRightShifterPii ## -- Begin function _Z22simpleZeroRightShifterPii
	.p2align	4, 0x90
__Z22simpleZeroRightShifterPii:         ## @_Z22simpleZeroRightShifterPii
	.cfi_startproc
## %bb.0:
	pushq	%rbp
	.cfi_def_cfa_offset 16
	.cfi_offset %rbp, -16
	movq	%rsp, %rbp
	.cfi_def_cfa_register %rbp
	movq	%rdi, -8(%rbp)
	movl	%esi, -12(%rbp)
	movl	-12(%rbp), %eax
	subl	$1, %eax
	movl	%eax, -16(%rbp)
LBB40_1:                                ## =>This Loop Header: Depth=1
                                        ##     Child Loop BB40_5 Depth 2
	cmpl	$0, -16(%rbp)
	jl	LBB40_10
## %bb.2:                               ##   in Loop: Header=BB40_1 Depth=1
	movq	-8(%rbp), %rax
	movslq	-16(%rbp), %rcx
	cmpl	$0, (%rax,%rcx,4)
	je	LBB40_4
## %bb.3:                               ##   in Loop: Header=BB40_1 Depth=1
	jmp	LBB40_9
LBB40_4:                                ##   in Loop: Header=BB40_1 Depth=1
	movl	-16(%rbp), %eax
	movl	%eax, -20(%rbp)
LBB40_5:                                ##   Parent Loop BB40_1 Depth=1
                                        ## =>  This Inner Loop Header: Depth=2
	movl	-20(%rbp), %eax
	movl	-12(%rbp), %ecx
	subl	$1, %ecx
	cmpl	%ecx, %eax
	jge	LBB40_8
## %bb.6:                               ##   in Loop: Header=BB40_5 Depth=2
	movq	-8(%rbp), %rax
	movl	-20(%rbp), %ecx
	addl	$1, %ecx
	movslq	%ecx, %rdx
	movl	(%rax,%rdx,4), %ecx
	movq	-8(%rbp), %rax
	movslq	-20(%rbp), %rdx
	movl	%ecx, (%rax,%rdx,4)
## %bb.7:                               ##   in Loop: Header=BB40_5 Depth=2
	movl	-20(%rbp), %eax
	addl	$1, %eax
	movl	%eax, -20(%rbp)
	jmp	LBB40_5
LBB40_8:                                ##   in Loop: Header=BB40_1 Depth=1
	movq	-8(%rbp), %rax
	movl	-12(%rbp), %ecx
	subl	$1, %ecx
	movslq	%ecx, %rdx
	movl	$0, (%rax,%rdx,4)
LBB40_9:                                ##   in Loop: Header=BB40_1 Depth=1
	movl	-16(%rbp), %eax
	addl	$-1, %eax
	movl	%eax, -16(%rbp)
	jmp	LBB40_1
LBB40_10:
	popq	%rbp
	retq
	.cfi_endproc
                                        ## -- End function
	.globl	__Z18FindSumArrayTargetPimi ## -- Begin function _Z18FindSumArrayTargetPimi
	.p2align	4, 0x90
__Z18FindSumArrayTargetPimi:            ## @_Z18FindSumArrayTargetPimi
Lfunc_begin2:
	.cfi_startproc
	.cfi_personality 155, ___gxx_personality_v0
	.cfi_lsda 16, Lexception2
## %bb.0:
	pushq	%rbp
	.cfi_def_cfa_offset 16
	.cfi_offset %rbp, -16
	movq	%rsp, %rbp
	.cfi_def_cfa_register %rbp
	subq	$240, %rsp
	movq	%rdi, %rax
	movq	%rdi, %r8
	movq	%r8, -8(%rbp)
	movq	%rsi, -16(%rbp)
	movq	%rdx, -24(%rbp)
	movl	%ecx, -28(%rbp)
	leaq	-56(%rbp), %rdx
	movq	%rdi, -232(%rbp)        ## 8-byte Spill
	movq	%rdx, %rdi
	leaq	L_.str.2(%rip), %rsi
	movq	%rax, -240(%rbp)        ## 8-byte Spill
	callq	__ZNSt3__112basic_stringIcNS_11char_traitsIcEENS_9allocatorIcEEEC1IDnEEPKc
	cmpq	$0, -24(%rbp)
	ja	LBB41_2
## %bb.1:
	movq	-232(%rbp), %rdi        ## 8-byte Reload
	leaq	-56(%rbp), %rsi
	callq	__ZNSt3__112basic_stringIcNS_11char_traitsIcEENS_9allocatorIcEEEC1EOS5_
	movl	$1, -60(%rbp)
	jmp	LBB41_32
LBB41_2:
	movq	$0, -72(%rbp)
	movq	$0, -80(%rbp)
	movq	-16(%rbp), %rax
	movq	-72(%rbp), %rcx
	movslq	(%rax,%rcx,4), %rax
	movq	%rax, -88(%rbp)
LBB41_3:                                ## =>This Inner Loop Header: Depth=1
	movq	-72(%rbp), %rax
	movq	-24(%rbp), %rcx
	subq	$1, %rcx
	cmpq	%rcx, %rax
	jae	LBB41_31
## %bb.4:                               ##   in Loop: Header=BB41_3 Depth=1
	movq	-72(%rbp), %rax
	cmpq	-80(%rbp), %rax
	jbe	LBB41_6
## %bb.5:                               ##   in Loop: Header=BB41_3 Depth=1
	movq	-72(%rbp), %rax
	movq	%rax, -80(%rbp)
	movq	-16(%rbp), %rax
	movq	-72(%rbp), %rcx
	movslq	(%rax,%rcx,4), %rax
	movq	%rax, -88(%rbp)
LBB41_6:                                ##   in Loop: Header=BB41_3 Depth=1
	movq	-88(%rbp), %rax
	movslq	-28(%rbp), %rcx
	cmpq	%rcx, %rax
	jae	LBB41_10
## %bb.7:                               ##   in Loop: Header=BB41_3 Depth=1
	movq	-80(%rbp), %rax
	movq	-24(%rbp), %rcx
	subq	$1, %rcx
	cmpq	%rcx, %rax
	jne	LBB41_9
## %bb.8:
	jmp	LBB41_31
LBB41_9:                                ##   in Loop: Header=BB41_3 Depth=1
	movq	-80(%rbp), %rax
	addq	$1, %rax
	movq	%rax, -80(%rbp)
	movq	-16(%rbp), %rax
	movq	-80(%rbp), %rcx
	movslq	(%rax,%rcx,4), %rax
	addq	-88(%rbp), %rax
	movq	%rax, -88(%rbp)
	jmp	LBB41_30
LBB41_10:                               ##   in Loop: Header=BB41_3 Depth=1
	movq	-88(%rbp), %rax
	movslq	-28(%rbp), %rcx
	cmpq	%rcx, %rax
	jbe	LBB41_12
## %bb.11:                              ##   in Loop: Header=BB41_3 Depth=1
	movq	-16(%rbp), %rax
	movq	-72(%rbp), %rcx
	movslq	(%rax,%rcx,4), %rax
	movq	-88(%rbp), %rcx
	subq	%rax, %rcx
	movq	%rcx, -88(%rbp)
	movq	-72(%rbp), %rax
	addq	$1, %rax
	movq	%rax, -72(%rbp)
	jmp	LBB41_29
LBB41_12:
	movq	-16(%rbp), %rax
	movq	-72(%rbp), %rcx
	movl	(%rax,%rcx,4), %esi
Ltmp18:
	leaq	-184(%rbp), %rdi
	callq	__ZNSt3__19to_stringEi
Ltmp19:
	jmp	LBB41_13
LBB41_13:
Ltmp21:
	leaq	L_.str.3(%rip), %rsi
	leaq	-160(%rbp), %rdi
	leaq	-184(%rbp), %rdx
	callq	__ZNSt3__1plIcNS_11char_traitsIcEENS_9allocatorIcEEEENS_12basic_stringIT_T0_T1_EEPKS6_OS9_
Ltmp22:
	jmp	LBB41_14
LBB41_14:
Ltmp24:
	leaq	L_.str.4(%rip), %rdx
	leaq	-136(%rbp), %rdi
	leaq	-160(%rbp), %rsi
	callq	__ZNSt3__1plIcNS_11char_traitsIcEENS_9allocatorIcEEEENS_12basic_stringIT_T0_T1_EEOS9_PKS6_
Ltmp25:
	jmp	LBB41_15
LBB41_15:
	movq	-16(%rbp), %rax
	movq	-80(%rbp), %rcx
	movl	(%rax,%rcx,4), %esi
Ltmp27:
	leaq	-224(%rbp), %rdi
	callq	__ZNSt3__19to_stringEi
Ltmp28:
	jmp	LBB41_16
LBB41_16:
Ltmp30:
	leaq	-112(%rbp), %rdi
	leaq	-136(%rbp), %rsi
	leaq	-224(%rbp), %rdx
	callq	__ZNSt3__1plIcNS_11char_traitsIcEENS_9allocatorIcEEEENS_12basic_stringIT_T0_T1_EEOS9_SA_
Ltmp31:
	jmp	LBB41_17
LBB41_17:
Ltmp33:
	leaq	L_.str.5(%rip), %rdx
	leaq	-112(%rbp), %rsi
	movq	-232(%rbp), %rdi        ## 8-byte Reload
	callq	__ZNSt3__1plIcNS_11char_traitsIcEENS_9allocatorIcEEEENS_12basic_stringIT_T0_T1_EEOS9_PKS6_
Ltmp34:
	jmp	LBB41_18
LBB41_18:
	leaq	-112(%rbp), %rdi
	callq	__ZNSt3__112basic_stringIcNS_11char_traitsIcEENS_9allocatorIcEEED1Ev
	leaq	-224(%rbp), %rdi
	callq	__ZNSt3__112basic_stringIcNS_11char_traitsIcEENS_9allocatorIcEEED1Ev
	leaq	-136(%rbp), %rdi
	callq	__ZNSt3__112basic_stringIcNS_11char_traitsIcEENS_9allocatorIcEEED1Ev
	leaq	-160(%rbp), %rdi
	callq	__ZNSt3__112basic_stringIcNS_11char_traitsIcEENS_9allocatorIcEEED1Ev
	leaq	-184(%rbp), %rdi
	callq	__ZNSt3__112basic_stringIcNS_11char_traitsIcEENS_9allocatorIcEEED1Ev
	movl	$1, -60(%rbp)
	jmp	LBB41_32
LBB41_19:
Ltmp20:
                                        ## kill: def $edx killed $edx killed $rdx
	movq	%rax, -192(%rbp)
	movl	%edx, -196(%rbp)
	jmp	LBB41_33
LBB41_20:
Ltmp23:
                                        ## kill: def $edx killed $edx killed $rdx
	movq	%rax, -192(%rbp)
	movl	%edx, -196(%rbp)
	jmp	LBB41_28
LBB41_21:
Ltmp26:
                                        ## kill: def $edx killed $edx killed $rdx
	movq	%rax, -192(%rbp)
	movl	%edx, -196(%rbp)
	jmp	LBB41_27
LBB41_22:
Ltmp29:
                                        ## kill: def $edx killed $edx killed $rdx
	movq	%rax, -192(%rbp)
	movl	%edx, -196(%rbp)
	jmp	LBB41_26
LBB41_23:
Ltmp32:
                                        ## kill: def $edx killed $edx killed $rdx
	movq	%rax, -192(%rbp)
	movl	%edx, -196(%rbp)
	jmp	LBB41_25
LBB41_24:
Ltmp35:
                                        ## kill: def $edx killed $edx killed $rdx
	movq	%rax, -192(%rbp)
	movl	%edx, -196(%rbp)
	leaq	-112(%rbp), %rdi
	callq	__ZNSt3__112basic_stringIcNS_11char_traitsIcEENS_9allocatorIcEEED1Ev
LBB41_25:
	leaq	-224(%rbp), %rdi
	callq	__ZNSt3__112basic_stringIcNS_11char_traitsIcEENS_9allocatorIcEEED1Ev
LBB41_26:
	leaq	-136(%rbp), %rdi
	callq	__ZNSt3__112basic_stringIcNS_11char_traitsIcEENS_9allocatorIcEEED1Ev
LBB41_27:
	leaq	-160(%rbp), %rdi
	callq	__ZNSt3__112basic_stringIcNS_11char_traitsIcEENS_9allocatorIcEEED1Ev
LBB41_28:
	leaq	-184(%rbp), %rdi
	callq	__ZNSt3__112basic_stringIcNS_11char_traitsIcEENS_9allocatorIcEEED1Ev
	jmp	LBB41_33
LBB41_29:                               ##   in Loop: Header=BB41_3 Depth=1
	jmp	LBB41_30
LBB41_30:                               ##   in Loop: Header=BB41_3 Depth=1
	jmp	LBB41_3
LBB41_31:
	movq	-232(%rbp), %rdi        ## 8-byte Reload
	leaq	-56(%rbp), %rsi
	callq	__ZNSt3__112basic_stringIcNS_11char_traitsIcEENS_9allocatorIcEEEC1EOS5_
	movl	$1, -60(%rbp)
LBB41_32:
	leaq	-56(%rbp), %rdi
	callq	__ZNSt3__112basic_stringIcNS_11char_traitsIcEENS_9allocatorIcEEED1Ev
	movq	-240(%rbp), %rax        ## 8-byte Reload
	addq	$240, %rsp
	popq	%rbp
	retq
LBB41_33:
	leaq	-56(%rbp), %rdi
	callq	__ZNSt3__112basic_stringIcNS_11char_traitsIcEENS_9allocatorIcEEED1Ev
## %bb.34:
	movq	-192(%rbp), %rdi
	callq	__Unwind_Resume
	ud2
Lfunc_end2:
	.cfi_endproc
	.section	__TEXT,__gcc_except_tab
	.p2align	2
GCC_except_table41:
Lexception2:
	.byte	255                     ## @LPStart Encoding = omit
	.byte	255                     ## @TType Encoding = omit
	.byte	1                       ## Call site Encoding = uleb128
	.uleb128 Lcst_end2-Lcst_begin2
Lcst_begin2:
	.uleb128 Lfunc_begin2-Lfunc_begin2 ## >> Call Site 1 <<
	.uleb128 Ltmp18-Lfunc_begin2    ##   Call between Lfunc_begin2 and Ltmp18
	.byte	0                       ##     has no landing pad
	.byte	0                       ##   On action: cleanup
	.uleb128 Ltmp18-Lfunc_begin2    ## >> Call Site 2 <<
	.uleb128 Ltmp19-Ltmp18          ##   Call between Ltmp18 and Ltmp19
	.uleb128 Ltmp20-Lfunc_begin2    ##     jumps to Ltmp20
	.byte	0                       ##   On action: cleanup
	.uleb128 Ltmp21-Lfunc_begin2    ## >> Call Site 3 <<
	.uleb128 Ltmp22-Ltmp21          ##   Call between Ltmp21 and Ltmp22
	.uleb128 Ltmp23-Lfunc_begin2    ##     jumps to Ltmp23
	.byte	0                       ##   On action: cleanup
	.uleb128 Ltmp24-Lfunc_begin2    ## >> Call Site 4 <<
	.uleb128 Ltmp25-Ltmp24          ##   Call between Ltmp24 and Ltmp25
	.uleb128 Ltmp26-Lfunc_begin2    ##     jumps to Ltmp26
	.byte	0                       ##   On action: cleanup
	.uleb128 Ltmp27-Lfunc_begin2    ## >> Call Site 5 <<
	.uleb128 Ltmp28-Ltmp27          ##   Call between Ltmp27 and Ltmp28
	.uleb128 Ltmp29-Lfunc_begin2    ##     jumps to Ltmp29
	.byte	0                       ##   On action: cleanup
	.uleb128 Ltmp30-Lfunc_begin2    ## >> Call Site 6 <<
	.uleb128 Ltmp31-Ltmp30          ##   Call between Ltmp30 and Ltmp31
	.uleb128 Ltmp32-Lfunc_begin2    ##     jumps to Ltmp32
	.byte	0                       ##   On action: cleanup
	.uleb128 Ltmp33-Lfunc_begin2    ## >> Call Site 7 <<
	.uleb128 Ltmp34-Ltmp33          ##   Call between Ltmp33 and Ltmp34
	.uleb128 Ltmp35-Lfunc_begin2    ##     jumps to Ltmp35
	.byte	0                       ##   On action: cleanup
	.uleb128 Ltmp34-Lfunc_begin2    ## >> Call Site 8 <<
	.uleb128 Lfunc_end2-Ltmp34      ##   Call between Ltmp34 and Lfunc_end2
	.byte	0                       ##     has no landing pad
	.byte	0                       ##   On action: cleanup
Lcst_end2:
	.p2align	2
                                        ## -- End function
	.section	__TEXT,__text,regular,pure_instructions
	.p2align	4, 0x90         ## -- Begin function _ZNSt3__112basic_stringIcNS_11char_traitsIcEENS_9allocatorIcEEEC1IDnEEPKc
__ZNSt3__112basic_stringIcNS_11char_traitsIcEENS_9allocatorIcEEEC1IDnEEPKc: ## @_ZNSt3__112basic_stringIcNS_11char_traitsIcEENS_9allocatorIcEEEC1IDnEEPKc
	.cfi_startproc
## %bb.0:
	pushq	%rbp
	.cfi_def_cfa_offset 16
	.cfi_offset %rbp, -16
	movq	%rsp, %rbp
	.cfi_def_cfa_register %rbp
	subq	$16, %rsp
	movq	%rdi, -8(%rbp)
	movq	%rsi, -16(%rbp)
	movq	-8(%rbp), %rdi
	movq	-16(%rbp), %rsi
	callq	__ZNSt3__112basic_stringIcNS_11char_traitsIcEENS_9allocatorIcEEEC2IDnEEPKc
	addq	$16, %rsp
	popq	%rbp
	retq
	.cfi_endproc
                                        ## -- End function
	.p2align	4, 0x90         ## -- Begin function _ZNSt3__112basic_stringIcNS_11char_traitsIcEENS_9allocatorIcEEEC1EOS5_
__ZNSt3__112basic_stringIcNS_11char_traitsIcEENS_9allocatorIcEEEC1EOS5_: ## @_ZNSt3__112basic_stringIcNS_11char_traitsIcEENS_9allocatorIcEEEC1EOS5_
	.cfi_startproc
## %bb.0:
	pushq	%rbp
	.cfi_def_cfa_offset 16
	.cfi_offset %rbp, -16
	movq	%rsp, %rbp
	.cfi_def_cfa_register %rbp
	subq	$16, %rsp
	movq	%rdi, -8(%rbp)
	movq	%rsi, -16(%rbp)
	movq	-8(%rbp), %rdi
	movq	-16(%rbp), %rsi
	callq	__ZNSt3__112basic_stringIcNS_11char_traitsIcEENS_9allocatorIcEEEC2EOS5_
	addq	$16, %rsp
	popq	%rbp
	retq
	.cfi_endproc
                                        ## -- End function
	.p2align	4, 0x90         ## -- Begin function _ZNSt3__1plIcNS_11char_traitsIcEENS_9allocatorIcEEEENS_12basic_stringIT_T0_T1_EEOS9_PKS6_
__ZNSt3__1plIcNS_11char_traitsIcEENS_9allocatorIcEEEENS_12basic_stringIT_T0_T1_EEOS9_PKS6_: ## @_ZNSt3__1plIcNS_11char_traitsIcEENS_9allocatorIcEEEENS_12basic_stringIT_T0_T1_EEOS9_PKS6_
	.cfi_startproc
## %bb.0:
	pushq	%rbp
	.cfi_def_cfa_offset 16
	.cfi_offset %rbp, -16
	movq	%rsp, %rbp
	.cfi_def_cfa_register %rbp
	subq	$48, %rsp
	movq	%rdi, %rax
	movq	%rdi, %rcx
	movq	%rcx, -8(%rbp)
	movq	%rsi, -16(%rbp)
	movq	%rdx, -24(%rbp)
	movq	-16(%rbp), %rcx
	movq	-24(%rbp), %rsi
	movq	%rdi, -32(%rbp)         ## 8-byte Spill
	movq	%rcx, %rdi
	movq	%rax, -40(%rbp)         ## 8-byte Spill
	callq	__ZNSt3__112basic_stringIcNS_11char_traitsIcEENS_9allocatorIcEEE6appendEPKc
	movq	%rax, %rdi
	callq	__ZNSt3__1L4moveIRNS_12basic_stringIcNS_11char_traitsIcEENS_9allocatorIcEEEEEEONS_16remove_referenceIT_E4typeEOS9_
	movq	-32(%rbp), %rdi         ## 8-byte Reload
	movq	%rax, %rsi
	callq	__ZNSt3__112basic_stringIcNS_11char_traitsIcEENS_9allocatorIcEEEC1EOS5_
	movq	-40(%rbp), %rax         ## 8-byte Reload
	addq	$48, %rsp
	popq	%rbp
	retq
	.cfi_endproc
                                        ## -- End function
	.p2align	4, 0x90         ## -- Begin function _ZNSt3__1plIcNS_11char_traitsIcEENS_9allocatorIcEEEENS_12basic_stringIT_T0_T1_EEOS9_SA_
__ZNSt3__1plIcNS_11char_traitsIcEENS_9allocatorIcEEEENS_12basic_stringIT_T0_T1_EEOS9_SA_: ## @_ZNSt3__1plIcNS_11char_traitsIcEENS_9allocatorIcEEEENS_12basic_stringIT_T0_T1_EEOS9_SA_
	.cfi_startproc
## %bb.0:
	pushq	%rbp
	.cfi_def_cfa_offset 16
	.cfi_offset %rbp, -16
	movq	%rsp, %rbp
	.cfi_def_cfa_register %rbp
	subq	$48, %rsp
	movq	%rdi, %rax
	movq	%rdi, %rcx
	movq	%rcx, -8(%rbp)
	movq	%rsi, -16(%rbp)
	movq	%rdx, -24(%rbp)
	movq	-16(%rbp), %rcx
	movq	-24(%rbp), %rsi
	movq	%rdi, -32(%rbp)         ## 8-byte Spill
	movq	%rcx, %rdi
	movq	%rax, -40(%rbp)         ## 8-byte Spill
	callq	__ZNSt3__112basic_stringIcNS_11char_traitsIcEENS_9allocatorIcEEE6appendERKS5_
	movq	%rax, %rdi
	callq	__ZNSt3__1L4moveIRNS_12basic_stringIcNS_11char_traitsIcEENS_9allocatorIcEEEEEEONS_16remove_referenceIT_E4typeEOS9_
	movq	-32(%rbp), %rdi         ## 8-byte Reload
	movq	%rax, %rsi
	callq	__ZNSt3__112basic_stringIcNS_11char_traitsIcEENS_9allocatorIcEEEC1EOS5_
	movq	-40(%rbp), %rax         ## 8-byte Reload
	addq	$48, %rsp
	popq	%rbp
	retq
	.cfi_endproc
                                        ## -- End function
	.p2align	4, 0x90         ## -- Begin function _ZNSt3__1plIcNS_11char_traitsIcEENS_9allocatorIcEEEENS_12basic_stringIT_T0_T1_EEPKS6_OS9_
__ZNSt3__1plIcNS_11char_traitsIcEENS_9allocatorIcEEEENS_12basic_stringIT_T0_T1_EEPKS6_OS9_: ## @_ZNSt3__1plIcNS_11char_traitsIcEENS_9allocatorIcEEEENS_12basic_stringIT_T0_T1_EEPKS6_OS9_
	.cfi_startproc
## %bb.0:
	pushq	%rbp
	.cfi_def_cfa_offset 16
	.cfi_offset %rbp, -16
	movq	%rsp, %rbp
	.cfi_def_cfa_register %rbp
	subq	$48, %rsp
	movq	%rdi, %rax
	xorl	%ecx, %ecx
	movl	%ecx, %r8d
	movq	%rdi, %r9
	movq	%r9, -8(%rbp)
	movq	%rsi, -16(%rbp)
	movq	%rdx, -24(%rbp)
	movq	-24(%rbp), %rdx
	movq	-16(%rbp), %rsi
	movq	%rdi, -32(%rbp)         ## 8-byte Spill
	movq	%rdx, %rdi
	movq	%rsi, -40(%rbp)         ## 8-byte Spill
	movq	%r8, %rsi
	movq	-40(%rbp), %rdx         ## 8-byte Reload
	movq	%rax, -48(%rbp)         ## 8-byte Spill
	callq	__ZNSt3__112basic_stringIcNS_11char_traitsIcEENS_9allocatorIcEEE6insertEmPKc
	movq	%rax, %rdi
	callq	__ZNSt3__1L4moveIRNS_12basic_stringIcNS_11char_traitsIcEENS_9allocatorIcEEEEEEONS_16remove_referenceIT_E4typeEOS9_
	movq	-32(%rbp), %rdi         ## 8-byte Reload
	movq	%rax, %rsi
	callq	__ZNSt3__112basic_stringIcNS_11char_traitsIcEENS_9allocatorIcEEEC1EOS5_
	movq	-48(%rbp), %rax         ## 8-byte Reload
	addq	$48, %rsp
	popq	%rbp
	retq
	.cfi_endproc
                                        ## -- End function
	.globl	__Z20BinarySearchUpgradedPimi ## -- Begin function _Z20BinarySearchUpgradedPimi
	.p2align	4, 0x90
__Z20BinarySearchUpgradedPimi:          ## @_Z20BinarySearchUpgradedPimi
	.cfi_startproc
## %bb.0:
	pushq	%rbp
	.cfi_def_cfa_offset 16
	.cfi_offset %rbp, -16
	movq	%rsp, %rbp
	.cfi_def_cfa_register %rbp
	movq	%rdi, -16(%rbp)
	movq	%rsi, -24(%rbp)
	movl	%edx, -28(%rbp)
	cmpq	$0, -24(%rbp)
	ja	LBB47_2
## %bb.1:
	movl	$-1, -4(%rbp)
	jmp	LBB47_12
LBB47_2:
	movl	$0, -32(%rbp)
	movq	-24(%rbp), %rax
	subq	$1, %rax
                                        ## kill: def $eax killed $eax killed $rax
	movl	%eax, -36(%rbp)
LBB47_3:                                ## =>This Inner Loop Header: Depth=1
	movl	-32(%rbp), %eax
	cmpl	-36(%rbp), %eax
	jg	LBB47_11
## %bb.4:                               ##   in Loop: Header=BB47_3 Depth=1
	movl	-32(%rbp), %eax
	movl	-36(%rbp), %ecx
	subl	-32(%rbp), %ecx
	movl	%eax, -44(%rbp)         ## 4-byte Spill
	movl	%ecx, %eax
	cltd
	movl	$2, %ecx
	idivl	%ecx
	movl	-44(%rbp), %ecx         ## 4-byte Reload
	addl	%eax, %ecx
	movl	%ecx, -40(%rbp)
	movq	-16(%rbp), %rsi
	movslq	-40(%rbp), %rdi
	movl	(%rsi,%rdi,4), %eax
	cmpl	-28(%rbp), %eax
	jne	LBB47_6
## %bb.5:
	movl	-40(%rbp), %eax
	movl	%eax, -4(%rbp)
	jmp	LBB47_12
LBB47_6:                                ##   in Loop: Header=BB47_3 Depth=1
	movq	-16(%rbp), %rax
	movslq	-40(%rbp), %rcx
	movl	(%rax,%rcx,4), %edx
	cmpl	-28(%rbp), %edx
	jge	LBB47_8
## %bb.7:                               ##   in Loop: Header=BB47_3 Depth=1
	movl	-40(%rbp), %eax
	addl	$1, %eax
	movl	%eax, -40(%rbp)
	movl	%eax, -32(%rbp)
	jmp	LBB47_9
LBB47_8:                                ##   in Loop: Header=BB47_3 Depth=1
	movl	-40(%rbp), %eax
	addl	$1, %eax
	movl	%eax, -40(%rbp)
	movl	%eax, -36(%rbp)
LBB47_9:                                ##   in Loop: Header=BB47_3 Depth=1
	jmp	LBB47_10
LBB47_10:                               ##   in Loop: Header=BB47_3 Depth=1
	jmp	LBB47_3
LBB47_11:
	movl	$-1, -4(%rbp)
LBB47_12:
	movl	-4(%rbp), %eax
	popq	%rbp
	retq
	.cfi_endproc
                                        ## -- End function
	.globl	__Z25BinarySearchRecFIMostLeftPiiii ## -- Begin function _Z25BinarySearchRecFIMostLeftPiiii
	.p2align	4, 0x90
__Z25BinarySearchRecFIMostLeftPiiii:    ## @_Z25BinarySearchRecFIMostLeftPiiii
	.cfi_startproc
## %bb.0:
	pushq	%rbp
	.cfi_def_cfa_offset 16
	.cfi_offset %rbp, -16
	movq	%rsp, %rbp
	.cfi_def_cfa_register %rbp
	subq	$48, %rsp
	movq	%rdi, -16(%rbp)
	movl	%esi, -20(%rbp)
	movl	%edx, -24(%rbp)
	movl	%ecx, -28(%rbp)
	movl	-20(%rbp), %eax
	cmpl	-24(%rbp), %eax
	jle	LBB48_2
## %bb.1:
	movl	$-1, -4(%rbp)
	jmp	LBB48_9
LBB48_2:
	movl	-20(%rbp), %eax
	movl	-24(%rbp), %ecx
	subl	-20(%rbp), %ecx
	movl	%eax, -36(%rbp)         ## 4-byte Spill
	movl	%ecx, %eax
	cltd
	movl	$2, %ecx
	idivl	%ecx
	movl	-36(%rbp), %ecx         ## 4-byte Reload
	addl	%eax, %ecx
	movl	%ecx, -32(%rbp)
	movq	-16(%rbp), %rsi
	movslq	-32(%rbp), %rdi
	movl	(%rsi,%rdi,4), %eax
	cmpl	-28(%rbp), %eax
	jne	LBB48_6
## %bb.3:
	cmpl	$0, -32(%rbp)
	je	LBB48_5
## %bb.4:
	movq	-16(%rbp), %rax
	movl	-32(%rbp), %ecx
	subl	$1, %ecx
	movslq	%ecx, %rdx
	movl	(%rax,%rdx,4), %ecx
	cmpl	-28(%rbp), %ecx
	je	LBB48_6
LBB48_5:
	movl	-32(%rbp), %eax
	movl	%eax, -4(%rbp)
	jmp	LBB48_9
LBB48_6:
	movq	-16(%rbp), %rax
	movslq	-32(%rbp), %rcx
	movl	(%rax,%rcx,4), %edx
	cmpl	-28(%rbp), %edx
	jl	LBB48_8
## %bb.7:
	movq	-16(%rbp), %rdi
	movl	-20(%rbp), %esi
	movl	-32(%rbp), %eax
	subl	$1, %eax
	movl	-28(%rbp), %ecx
	movl	%eax, %edx
	callq	__Z25BinarySearchRecFIMostLeftPiiii
	movl	%eax, -4(%rbp)
	jmp	LBB48_9
LBB48_8:
	movq	-16(%rbp), %rdi
	movl	-32(%rbp), %eax
	addl	$1, %eax
	movl	-24(%rbp), %edx
	movl	-28(%rbp), %ecx
	movl	%eax, %esi
	callq	__Z25BinarySearchRecFIMostLeftPiiii
	movl	%eax, -4(%rbp)
LBB48_9:
	movl	-4(%rbp), %eax
	addq	$48, %rsp
	popq	%rbp
	retq
	.cfi_endproc
                                        ## -- End function
	.globl	__Z26BinarySearchRecFIMostRightPiiiii ## -- Begin function _Z26BinarySearchRecFIMostRightPiiiii
	.p2align	4, 0x90
__Z26BinarySearchRecFIMostRightPiiiii:  ## @_Z26BinarySearchRecFIMostRightPiiiii
	.cfi_startproc
## %bb.0:
	pushq	%rbp
	.cfi_def_cfa_offset 16
	.cfi_offset %rbp, -16
	movq	%rsp, %rbp
	.cfi_def_cfa_register %rbp
	subq	$48, %rsp
	movq	%rdi, -16(%rbp)
	movl	%esi, -20(%rbp)
	movl	%edx, -24(%rbp)
	movl	%ecx, -28(%rbp)
	movl	%r8d, -32(%rbp)
	movl	-20(%rbp), %eax
	cmpl	-24(%rbp), %eax
	jle	LBB49_2
## %bb.1:
	movl	$-1, -4(%rbp)
	jmp	LBB49_9
LBB49_2:
	movl	-20(%rbp), %eax
	movl	-24(%rbp), %ecx
	subl	-20(%rbp), %ecx
	movl	%eax, -40(%rbp)         ## 4-byte Spill
	movl	%ecx, %eax
	cltd
	movl	$2, %ecx
	idivl	%ecx
	movl	-40(%rbp), %ecx         ## 4-byte Reload
	addl	%eax, %ecx
	movl	%ecx, -36(%rbp)
	movq	-16(%rbp), %rsi
	movslq	-36(%rbp), %rdi
	movl	(%rsi,%rdi,4), %eax
	cmpl	-28(%rbp), %eax
	jne	LBB49_6
## %bb.3:
	movl	-36(%rbp), %eax
	movl	-32(%rbp), %ecx
	subl	$1, %ecx
	cmpl	%ecx, %eax
	je	LBB49_5
## %bb.4:
	movq	-16(%rbp), %rax
	movl	-36(%rbp), %ecx
	addl	$1, %ecx
	movslq	%ecx, %rdx
	movl	(%rax,%rdx,4), %ecx
	cmpl	-28(%rbp), %ecx
	je	LBB49_6
LBB49_5:
	movl	-36(%rbp), %eax
	movl	%eax, -4(%rbp)
	jmp	LBB49_9
LBB49_6:
	movq	-16(%rbp), %rax
	movslq	-36(%rbp), %rcx
	movl	(%rax,%rcx,4), %edx
	cmpl	-28(%rbp), %edx
	jle	LBB49_8
## %bb.7:
	movq	-16(%rbp), %rdi
	movl	-20(%rbp), %esi
	movl	-36(%rbp), %eax
	subl	$1, %eax
	movl	-28(%rbp), %ecx
	movl	-32(%rbp), %r8d
	movl	%eax, %edx
	callq	__Z26BinarySearchRecFIMostRightPiiiii
	movl	%eax, -4(%rbp)
	jmp	LBB49_9
LBB49_8:
	movq	-16(%rbp), %rdi
	movl	-36(%rbp), %eax
	addl	$1, %eax
	movl	-24(%rbp), %edx
	movl	-28(%rbp), %ecx
	movl	-32(%rbp), %r8d
	movl	%eax, %esi
	callq	__Z26BinarySearchRecFIMostRightPiiiii
	movl	%eax, -4(%rbp)
LBB49_9:
	movl	-4(%rbp), %eax
	addq	$48, %rsp
	popq	%rbp
	retq
	.cfi_endproc
                                        ## -- End function
	.globl	__Z22BinarySearchRecFITotalPiiiiii ## -- Begin function _Z22BinarySearchRecFITotalPiiiiii
	.p2align	4, 0x90
__Z22BinarySearchRecFITotalPiiiiii:     ## @_Z22BinarySearchRecFITotalPiiiiii
	.cfi_startproc
## %bb.0:
	pushq	%rbp
	.cfi_def_cfa_offset 16
	.cfi_offset %rbp, -16
	movq	%rsp, %rbp
	.cfi_def_cfa_register %rbp
	subq	$48, %rsp
	movq	%rdi, -8(%rbp)
	movl	%esi, -12(%rbp)
	movl	%edx, -16(%rbp)
	movl	%ecx, -20(%rbp)
	movl	%r8d, -24(%rbp)
	movl	%r9d, -28(%rbp)
	movq	-8(%rbp), %rdi
	movl	-12(%rbp), %esi
	movl	-24(%rbp), %edx
	movl	-20(%rbp), %ecx
	movl	-24(%rbp), %r8d
	callq	__Z26BinarySearchRecFIMostRightPiiiii
	movq	-8(%rbp), %rdi
	movl	-12(%rbp), %esi
	movl	-24(%rbp), %edx
	movl	-20(%rbp), %ecx
	movl	%eax, -36(%rbp)         ## 4-byte Spill
	callq	__Z25BinarySearchRecFIMostLeftPiiii
	movl	-36(%rbp), %ecx         ## 4-byte Reload
	subl	%eax, %ecx
	movl	%ecx, -32(%rbp)
	cmpl	$0, -32(%rbp)
	jne	LBB50_2
## %bb.1:
	movl	$4294967295, %eax       ## imm = 0xFFFFFFFF
	movl	%eax, -40(%rbp)         ## 4-byte Spill
	jmp	LBB50_3
LBB50_2:
	movl	-32(%rbp), %eax
	movl	%eax, -40(%rbp)         ## 4-byte Spill
LBB50_3:
	movl	-40(%rbp), %eax         ## 4-byte Reload
	addl	$1, %eax
	addq	$48, %rsp
	popq	%rbp
	retq
	.cfi_endproc
                                        ## -- End function
	.globl	__Z20FirstOccurenceFinderPimi ## -- Begin function _Z20FirstOccurenceFinderPimi
	.p2align	4, 0x90
__Z20FirstOccurenceFinderPimi:          ## @_Z20FirstOccurenceFinderPimi
	.cfi_startproc
## %bb.0:
	pushq	%rbp
	.cfi_def_cfa_offset 16
	.cfi_offset %rbp, -16
	movq	%rsp, %rbp
	.cfi_def_cfa_register %rbp
	movq	%rdi, -16(%rbp)
	movq	%rsi, -24(%rbp)
	movl	%edx, -28(%rbp)
	cmpq	$0, -24(%rbp)
	ja	LBB51_2
## %bb.1:
	movl	$-1, -4(%rbp)
	jmp	LBB51_17
LBB51_2:
	movl	$0, -32(%rbp)
	movq	-24(%rbp), %rax
	subq	$1, %rax
                                        ## kill: def $eax killed $eax killed $rax
	movl	%eax, -36(%rbp)
LBB51_3:                                ## =>This Inner Loop Header: Depth=1
	movl	-32(%rbp), %eax
	cmpl	-36(%rbp), %eax
	jg	LBB51_16
## %bb.4:                               ##   in Loop: Header=BB51_3 Depth=1
	movl	-32(%rbp), %eax
	movl	-36(%rbp), %ecx
	subl	-32(%rbp), %ecx
	movl	%eax, -44(%rbp)         ## 4-byte Spill
	movl	%ecx, %eax
	cltd
	movl	$2, %ecx
	idivl	%ecx
	movl	-44(%rbp), %ecx         ## 4-byte Reload
	addl	%eax, %ecx
	movl	%ecx, -40(%rbp)
	movq	-16(%rbp), %rsi
	movslq	-40(%rbp), %rdi
	movl	(%rsi,%rdi,4), %eax
	cmpl	-28(%rbp), %eax
	jg	LBB51_8
## %bb.5:                               ##   in Loop: Header=BB51_3 Depth=1
	movq	-16(%rbp), %rax
	movslq	-40(%rbp), %rcx
	movl	(%rax,%rcx,4), %edx
	cmpl	-28(%rbp), %edx
	jne	LBB51_9
## %bb.6:                               ##   in Loop: Header=BB51_3 Depth=1
	cmpl	$0, -40(%rbp)
	jle	LBB51_9
## %bb.7:                               ##   in Loop: Header=BB51_3 Depth=1
	movq	-16(%rbp), %rax
	movl	-40(%rbp), %ecx
	subl	$1, %ecx
	movslq	%ecx, %rdx
	movl	(%rax,%rdx,4), %ecx
	cmpl	-28(%rbp), %ecx
	jne	LBB51_9
LBB51_8:                                ##   in Loop: Header=BB51_3 Depth=1
	movl	-40(%rbp), %eax
	addl	$-1, %eax
	movl	%eax, -40(%rbp)
	movl	%eax, -36(%rbp)
	jmp	LBB51_15
LBB51_9:                                ##   in Loop: Header=BB51_3 Depth=1
	movq	-16(%rbp), %rax
	movslq	-40(%rbp), %rcx
	movl	(%rax,%rcx,4), %edx
	cmpl	-28(%rbp), %edx
	jge	LBB51_11
## %bb.10:                              ##   in Loop: Header=BB51_3 Depth=1
	movl	-40(%rbp), %eax
	addl	$1, %eax
	movl	%eax, -40(%rbp)
	movl	%eax, -32(%rbp)
	jmp	LBB51_14
LBB51_11:                               ##   in Loop: Header=BB51_3 Depth=1
	movq	-16(%rbp), %rax
	movslq	-40(%rbp), %rcx
	movl	(%rax,%rcx,4), %edx
	cmpl	-28(%rbp), %edx
	jne	LBB51_13
## %bb.12:
	movl	-40(%rbp), %eax
	movl	%eax, -4(%rbp)
	jmp	LBB51_17
LBB51_13:                               ##   in Loop: Header=BB51_3 Depth=1
	jmp	LBB51_14
LBB51_14:                               ##   in Loop: Header=BB51_3 Depth=1
	jmp	LBB51_15
LBB51_15:                               ##   in Loop: Header=BB51_3 Depth=1
	jmp	LBB51_3
LBB51_16:
	movl	$-1, -4(%rbp)
LBB51_17:
	movl	-4(%rbp), %eax
	popq	%rbp
	retq
	.cfi_endproc
                                        ## -- End function
	.globl	__Z17FindClosestFinderPimi ## -- Begin function _Z17FindClosestFinderPimi
	.p2align	4, 0x90
__Z17FindClosestFinderPimi:             ## @_Z17FindClosestFinderPimi
	.cfi_startproc
## %bb.0:
	pushq	%rbp
	.cfi_def_cfa_offset 16
	.cfi_offset %rbp, -16
	movq	%rsp, %rbp
	.cfi_def_cfa_register %rbp
	subq	$80, %rsp
	movq	%rdi, -16(%rbp)
	movq	%rsi, -24(%rbp)
	movl	%edx, -28(%rbp)
	cmpq	$0, -24(%rbp)
	ja	LBB52_2
## %bb.1:
	movl	$-1, -4(%rbp)
	jmp	LBB52_14
LBB52_2:
	movl	$0, -32(%rbp)
	movq	-24(%rbp), %rax
	subq	$1, %rax
                                        ## kill: def $eax killed $eax killed $rax
	movl	%eax, -36(%rbp)
	movq	-16(%rbp), %rcx
	movl	-32(%rbp), %eax
	movl	-36(%rbp), %edx
	subl	-32(%rbp), %edx
	movl	%eax, -72(%rbp)         ## 4-byte Spill
	movl	%edx, %eax
	cltd
	movl	$2, %esi
	idivl	%esi
	movl	-72(%rbp), %esi         ## 4-byte Reload
	addl	%eax, %esi
	movslq	%esi, %rdi
	movl	(%rcx,%rdi,4), %eax
	movl	%eax, -40(%rbp)
	leaq	-28(%rbp), %rcx
	movq	%rcx, -64(%rbp)
	leaq	-16(%rbp), %rcx
	movq	%rcx, -56(%rbp)
	leaq	-40(%rbp), %rcx
	movq	%rcx, -48(%rbp)
LBB52_3:                                ## =>This Inner Loop Header: Depth=1
	movl	-32(%rbp), %eax
	cmpl	-36(%rbp), %eax
	jg	LBB52_13
## %bb.4:                               ##   in Loop: Header=BB52_3 Depth=1
	movl	-32(%rbp), %eax
	movl	-36(%rbp), %ecx
	subl	-32(%rbp), %ecx
	movl	%eax, -76(%rbp)         ## 4-byte Spill
	movl	%ecx, %eax
	cltd
	movl	$2, %ecx
	idivl	%ecx
	movl	-76(%rbp), %ecx         ## 4-byte Reload
	addl	%eax, %ecx
	movl	%ecx, -68(%rbp)
	movq	-16(%rbp), %rsi
	movslq	-68(%rbp), %rdi
	movl	(%rsi,%rdi,4), %eax
	cmpl	-28(%rbp), %eax
	jle	LBB52_6
## %bb.5:                               ##   in Loop: Header=BB52_3 Depth=1
	movl	-68(%rbp), %esi
	leaq	-64(%rbp), %rdi
	callq	__ZZ17FindClosestFinderPimiENK3$_0clEi
	movl	-68(%rbp), %eax
	addl	$-1, %eax
	movl	%eax, -68(%rbp)
	movl	%eax, -36(%rbp)
	jmp	LBB52_12
LBB52_6:                                ##   in Loop: Header=BB52_3 Depth=1
	movq	-16(%rbp), %rax
	movslq	-68(%rbp), %rcx
	movl	(%rax,%rcx,4), %edx
	cmpl	-28(%rbp), %edx
	jge	LBB52_8
## %bb.7:                               ##   in Loop: Header=BB52_3 Depth=1
	movl	-68(%rbp), %esi
	leaq	-64(%rbp), %rdi
	callq	__ZZ17FindClosestFinderPimiENK3$_0clEi
	movl	-68(%rbp), %eax
	addl	$1, %eax
	movl	%eax, -68(%rbp)
	movl	%eax, -32(%rbp)
	jmp	LBB52_11
LBB52_8:                                ##   in Loop: Header=BB52_3 Depth=1
	movq	-16(%rbp), %rax
	movslq	-68(%rbp), %rcx
	movl	(%rax,%rcx,4), %edx
	cmpl	-28(%rbp), %edx
	jne	LBB52_10
## %bb.9:
	movl	-68(%rbp), %eax
	movl	%eax, -4(%rbp)
	jmp	LBB52_14
LBB52_10:                               ##   in Loop: Header=BB52_3 Depth=1
	jmp	LBB52_11
LBB52_11:                               ##   in Loop: Header=BB52_3 Depth=1
	jmp	LBB52_12
LBB52_12:                               ##   in Loop: Header=BB52_3 Depth=1
	jmp	LBB52_3
LBB52_13:
	movl	-40(%rbp), %eax
	movl	%eax, -4(%rbp)
LBB52_14:
	movl	-4(%rbp), %eax
	addq	$80, %rsp
	popq	%rbp
	retq
	.cfi_endproc
                                        ## -- End function
	.p2align	4, 0x90         ## -- Begin function _ZZ17FindClosestFinderPimiENK3$_0clEi
__ZZ17FindClosestFinderPimiENK3$_0clEi: ## @"_ZZ17FindClosestFinderPimiENK3$_0clEi"
	.cfi_startproc
## %bb.0:
	pushq	%rbp
	.cfi_def_cfa_offset 16
	.cfi_offset %rbp, -16
	movq	%rsp, %rbp
	.cfi_def_cfa_register %rbp
	subq	$32, %rsp
	movq	%rdi, -8(%rbp)
	movl	%esi, -12(%rbp)
	movq	-8(%rbp), %rax
	movq	(%rax), %rcx
	movl	(%rcx), %edx
	movq	8(%rax), %rcx
	movq	(%rcx), %rcx
	movslq	-12(%rbp), %rdi
	subl	(%rcx,%rdi,4), %edx
	movl	%edx, %edi
	movq	%rax, -24(%rbp)         ## 8-byte Spill
	callq	_abs
	movq	-24(%rbp), %rcx         ## 8-byte Reload
	movq	(%rcx), %r8
	movl	(%r8), %edx
	movq	16(%rcx), %r8
	subl	(%r8), %edx
	movl	%edx, %edi
	movl	%eax, -28(%rbp)         ## 4-byte Spill
	callq	_abs
	movl	-28(%rbp), %edx         ## 4-byte Reload
	cmpl	%eax, %edx
	jge	LBB53_2
## %bb.1:
	movq	-24(%rbp), %rax         ## 8-byte Reload
	movq	8(%rax), %rcx
	movq	(%rcx), %rcx
	movslq	-12(%rbp), %rdx
	movl	(%rcx,%rdx,4), %esi
	movq	16(%rax), %rcx
	movl	%esi, (%rcx)
LBB53_2:
	addq	$32, %rsp
	popq	%rbp
	retq
	.cfi_endproc
                                        ## -- End function
	.globl	__Z4SortPim             ## -- Begin function _Z4SortPim
	.p2align	4, 0x90
__Z4SortPim:                            ## @_Z4SortPim
	.cfi_startproc
## %bb.0:
	pushq	%rbp
	.cfi_def_cfa_offset 16
	.cfi_offset %rbp, -16
	movq	%rsp, %rbp
	.cfi_def_cfa_register %rbp
	movq	%rdi, -8(%rbp)
	movq	%rsi, -16(%rbp)
	movl	$0, -20(%rbp)
LBB54_1:                                ## =>This Loop Header: Depth=1
                                        ##     Child Loop BB54_3 Depth 2
	movslq	-20(%rbp), %rax
	movq	-16(%rbp), %rcx
	subq	$1, %rcx
	cmpq	%rcx, %rax
	jae	LBB54_10
## %bb.2:                               ##   in Loop: Header=BB54_1 Depth=1
	movl	$0, -24(%rbp)
LBB54_3:                                ##   Parent Loop BB54_1 Depth=1
                                        ## =>  This Inner Loop Header: Depth=2
	movslq	-24(%rbp), %rax
	movq	-16(%rbp), %rcx
	movslq	-20(%rbp), %rdx
	subq	%rdx, %rcx
	subq	$1, %rcx
	cmpq	%rcx, %rax
	jae	LBB54_8
## %bb.4:                               ##   in Loop: Header=BB54_3 Depth=2
	movq	-8(%rbp), %rax
	movslq	-24(%rbp), %rcx
	movl	(%rax,%rcx,4), %edx
	movq	-8(%rbp), %rax
	movl	-24(%rbp), %esi
	addl	$1, %esi
	movslq	%esi, %rcx
	cmpl	(%rax,%rcx,4), %edx
	jle	LBB54_6
## %bb.5:                               ##   in Loop: Header=BB54_3 Depth=2
	movq	-8(%rbp), %rax
	movslq	-24(%rbp), %rcx
	movl	(%rax,%rcx,4), %edx
	movl	%edx, -28(%rbp)
	movq	-8(%rbp), %rax
	movl	-24(%rbp), %edx
	addl	$1, %edx
	movslq	%edx, %rcx
	movl	(%rax,%rcx,4), %edx
	movq	-8(%rbp), %rax
	movslq	-24(%rbp), %rcx
	movl	%edx, (%rax,%rcx,4)
	movl	-28(%rbp), %edx
	movq	-8(%rbp), %rax
	movl	-24(%rbp), %esi
	addl	$1, %esi
	movslq	%esi, %rcx
	movl	%edx, (%rax,%rcx,4)
LBB54_6:                                ##   in Loop: Header=BB54_3 Depth=2
	jmp	LBB54_7
LBB54_7:                                ##   in Loop: Header=BB54_3 Depth=2
	movl	-24(%rbp), %eax
	addl	$1, %eax
	movl	%eax, -24(%rbp)
	jmp	LBB54_3
LBB54_8:                                ##   in Loop: Header=BB54_1 Depth=1
	jmp	LBB54_9
LBB54_9:                                ##   in Loop: Header=BB54_1 Depth=1
	movl	-20(%rbp), %eax
	addl	$1, %eax
	movl	%eax, -20(%rbp)
	jmp	LBB54_1
LBB54_10:
	popq	%rbp
	retq
	.cfi_endproc
                                        ## -- End function
	.globl	__ZN1T4funcEj           ## -- Begin function _ZN1T4funcEj
	.p2align	4, 0x90
__ZN1T4funcEj:                          ## @_ZN1T4funcEj
	.cfi_startproc
## %bb.0:
	pushq	%rbp
	.cfi_def_cfa_offset 16
	.cfi_offset %rbp, -16
	movq	%rsp, %rbp
	.cfi_def_cfa_register %rbp
	subq	$16, %rsp
	movq	__ZNSt3__14coutE@GOTPCREL(%rip), %rax
	movq	%rdi, -8(%rbp)
	movl	%esi, -12(%rbp)
	movl	-12(%rbp), %esi
	movq	%rax, %rdi
	callq	__ZNSt3__113basic_ostreamIcNS_11char_traitsIcEEElsEj
	movq	%rax, %rdi
	leaq	__ZNSt3__1L4endlIcNS_11char_traitsIcEEEERNS_13basic_ostreamIT_T0_EES7_(%rip), %rsi
	callq	__ZNSt3__113basic_ostreamIcNS_11char_traitsIcEEElsEPFRS3_S4_E
	addq	$16, %rsp
	popq	%rbp
	retq
	.cfi_endproc
                                        ## -- End function
	.globl	__Z6FactTRjy            ## -- Begin function _Z6FactTRjy
	.p2align	4, 0x90
__Z6FactTRjy:                           ## @_Z6FactTRjy
	.cfi_startproc
## %bb.0:
	pushq	%rbp
	.cfi_def_cfa_offset 16
	.cfi_offset %rbp, -16
	movq	%rsp, %rbp
	.cfi_def_cfa_register %rbp
	subq	$32, %rsp
	movl	%edi, -12(%rbp)
	movq	%rsi, -24(%rbp)
	cmpl	$0, -12(%rbp)
	jne	LBB56_2
## %bb.1:
	movq	-24(%rbp), %rax
	movq	%rax, -8(%rbp)
	jmp	LBB56_3
LBB56_2:
	movl	-12(%rbp), %eax
	subl	$1, %eax
	movl	-12(%rbp), %ecx
	movl	%ecx, %edx
	imulq	-24(%rbp), %rdx
	movl	%eax, %edi
	movq	%rdx, %rsi
	callq	__Z6FactTRjy
	movq	%rax, -8(%rbp)
LBB56_3:
	movq	-8(%rbp), %rax
	addq	$32, %rsp
	popq	%rbp
	retq
	.cfi_endproc
                                        ## -- End function
	.globl	__Z18FastFactCalculatorj ## -- Begin function _Z18FastFactCalculatorj
	.p2align	4, 0x90
__Z18FastFactCalculatorj:               ## @_Z18FastFactCalculatorj
	.cfi_startproc
## %bb.0:
	pushq	%rbp
	.cfi_def_cfa_offset 16
	.cfi_offset %rbp, -16
	movq	%rsp, %rbp
	.cfi_def_cfa_register %rbp
	subq	$64, %rsp
	movl	%edi, -4(%rbp)
	callq	__ZNSt3__16chrono12steady_clock3nowEv
	movq	%rax, -16(%rbp)
	movl	-4(%rbp), %edi
	movl	$1, %esi
	callq	__Z6FactTRjy
	movq	%rax, -24(%rbp)
	callq	__ZNSt3__16chrono12steady_clock3nowEv
	movq	__ZNSt3__14coutE@GOTPCREL(%rip), %rdi
	movq	%rax, -32(%rbp)
	leaq	L_.str.6(%rip), %rsi
	callq	__ZNSt3__1lsINS_11char_traitsIcEEEERNS_13basic_ostreamIcT_EES6_PKc
	leaq	-32(%rbp), %rdi
	leaq	-16(%rbp), %rsi
	movq	%rax, -56(%rbp)         ## 8-byte Spill
	callq	__ZNSt3__16chronomiINS0_12steady_clockENS0_8durationIxNS_5ratioILl1ELl1000000000EEEEES6_EENS_11common_typeIJT0_T1_EE4typeERKNS0_10time_pointIT_S8_EERKNSC_ISD_S9_EE
	movq	%rax, -48(%rbp)
	leaq	-48(%rbp), %rdi
	callq	__ZNSt3__16chronoL13duration_castINS0_8durationIxNS_5ratioILl1ELl1000000000EEEEExS4_EENS_9enable_ifIXsr13__is_durationIT_EE5valueES7_E4typeERKNS2_IT0_T1_EE
	movq	%rax, -40(%rbp)
	leaq	-40(%rbp), %rdi
	callq	__ZNKSt3__16chrono8durationIxNS_5ratioILl1ELl1000000000EEEE5countEv
	movq	-56(%rbp), %rdi         ## 8-byte Reload
	movq	%rax, %rsi
	callq	__ZNSt3__113basic_ostreamIcNS_11char_traitsIcEEElsEx
	movq	%rax, %rdi
	leaq	L_.str.7(%rip), %rsi
	callq	__ZNSt3__1lsINS_11char_traitsIcEEEERNS_13basic_ostreamIcT_EES6_PKc
	movq	-24(%rbp), %rsi
	movq	%rax, %rdi
	callq	__ZNSt3__113basic_ostreamIcNS_11char_traitsIcEEElsEy
	movq	%rax, %rdi
	leaq	__ZNSt3__1L4endlIcNS_11char_traitsIcEEEERNS_13basic_ostreamIT_T0_EES7_(%rip), %rsi
	callq	__ZNSt3__113basic_ostreamIcNS_11char_traitsIcEEElsEPFRS3_S4_E
	movq	-24(%rbp), %rcx
	movq	%rax, -64(%rbp)         ## 8-byte Spill
	movq	%rcx, %rax
	addq	$64, %rsp
	popq	%rbp
	retq
	.cfi_endproc
                                        ## -- End function
	.p2align	4, 0x90         ## -- Begin function _ZNSt3__16chronoL13duration_castINS0_8durationIxNS_5ratioILl1ELl1000000000EEEEExS4_EENS_9enable_ifIXsr13__is_durationIT_EE5valueES7_E4typeERKNS2_IT0_T1_EE
__ZNSt3__16chronoL13duration_castINS0_8durationIxNS_5ratioILl1ELl1000000000EEEEExS4_EENS_9enable_ifIXsr13__is_durationIT_EE5valueES7_E4typeERKNS2_IT0_T1_EE: ## @_ZNSt3__16chronoL13duration_castINS0_8durationIxNS_5ratioILl1ELl1000000000EEEEExS4_EENS_9enable_ifIXsr13__is_durationIT_EE5valueES7_E4typeERKNS2_IT0_T1_EE
	.cfi_startproc
## %bb.0:
	pushq	%rbp
	.cfi_def_cfa_offset 16
	.cfi_offset %rbp, -16
	movq	%rsp, %rbp
	.cfi_def_cfa_register %rbp
	subq	$32, %rsp
	movq	%rdi, -16(%rbp)
	movq	-16(%rbp), %rsi
	leaq	-24(%rbp), %rdi
	callq	__ZNKSt3__16chrono15__duration_castINS0_8durationIxNS_5ratioILl1ELl1000000000EEEEES5_NS3_ILl1ELl1EEELb1ELb1EEclERKS5_
	movq	%rax, -8(%rbp)
	movq	-8(%rbp), %rax
	addq	$32, %rsp
	popq	%rbp
	retq
	.cfi_endproc
                                        ## -- End function
	.p2align	4, 0x90         ## -- Begin function _ZNSt3__16chronomiINS0_12steady_clockENS0_8durationIxNS_5ratioILl1ELl1000000000EEEEES6_EENS_11common_typeIJT0_T1_EE4typeERKNS0_10time_pointIT_S8_EERKNSC_ISD_S9_EE
__ZNSt3__16chronomiINS0_12steady_clockENS0_8durationIxNS_5ratioILl1ELl1000000000EEEEES6_EENS_11common_typeIJT0_T1_EE4typeERKNS0_10time_pointIT_S8_EERKNSC_ISD_S9_EE: ## @_ZNSt3__16chronomiINS0_12steady_clockENS0_8durationIxNS_5ratioILl1ELl1000000000EEEEES6_EENS_11common_typeIJT0_T1_EE4typeERKNS0_10time_pointIT_S8_EERKNSC_ISD_S9_EE
	.cfi_startproc
## %bb.0:
	pushq	%rbp
	.cfi_def_cfa_offset 16
	.cfi_offset %rbp, -16
	movq	%rsp, %rbp
	.cfi_def_cfa_register %rbp
	subq	$48, %rsp
	movq	%rdi, -16(%rbp)
	movq	%rsi, -24(%rbp)
	movq	-16(%rbp), %rdi
	callq	__ZNKSt3__16chrono10time_pointINS0_12steady_clockENS0_8durationIxNS_5ratioILl1ELl1000000000EEEEEE16time_since_epochEv
	movq	%rax, -32(%rbp)
	movq	-24(%rbp), %rdi
	callq	__ZNKSt3__16chrono10time_pointINS0_12steady_clockENS0_8durationIxNS_5ratioILl1ELl1000000000EEEEEE16time_since_epochEv
	movq	%rax, -40(%rbp)
	leaq	-32(%rbp), %rdi
	leaq	-40(%rbp), %rsi
	callq	__ZNSt3__16chronomiIxNS_5ratioILl1ELl1000000000EEExS3_EENS_11common_typeIJNS0_8durationIT_T0_EENS5_IT1_T2_EEEE4typeERKS8_RKSB_
	movq	%rax, -8(%rbp)
	movq	-8(%rbp), %rax
	addq	$48, %rsp
	popq	%rbp
	retq
	.cfi_endproc
                                        ## -- End function
	.p2align	4, 0x90         ## -- Begin function _ZNKSt3__16chrono8durationIxNS_5ratioILl1ELl1000000000EEEE5countEv
__ZNKSt3__16chrono8durationIxNS_5ratioILl1ELl1000000000EEEE5countEv: ## @_ZNKSt3__16chrono8durationIxNS_5ratioILl1ELl1000000000EEEE5countEv
	.cfi_startproc
## %bb.0:
	pushq	%rbp
	.cfi_def_cfa_offset 16
	.cfi_offset %rbp, -16
	movq	%rsp, %rbp
	.cfi_def_cfa_register %rbp
	movq	%rdi, -8(%rbp)
	movq	-8(%rbp), %rax
	movq	(%rax), %rax
	popq	%rbp
	retq
	.cfi_endproc
                                        ## -- End function
	.globl	__Z18SlowFactCalcLinearj ## -- Begin function _Z18SlowFactCalcLinearj
	.p2align	4, 0x90
__Z18SlowFactCalcLinearj:               ## @_Z18SlowFactCalcLinearj
Lfunc_begin3:
	.cfi_startproc
	.cfi_personality 155, ___gxx_personality_v0
	.cfi_lsda 16, Lexception3
## %bb.0:
	pushq	%rbp
	.cfi_def_cfa_offset 16
	.cfi_offset %rbp, -16
	movq	%rsp, %rbp
	.cfi_def_cfa_register %rbp
	subq	$256, %rsp              ## imm = 0x100
	movl	%edi, -4(%rbp)
	callq	__ZNSt3__16chrono12steady_clock3nowEv
	movq	%rax, -16(%rbp)
	leaq	-56(%rbp), %rax
	movq	%rax, %rdi
	movq	%rax, -136(%rbp)        ## 8-byte Spill
	callq	__ZNSt3__113unordered_mapIiyNS_4hashIiEENS_8equal_toIiEENS_9allocatorINS_4pairIKiyEEEEEC1Ev
	movl	$0, -60(%rbp)
Ltmp36:
	leaq	-60(%rbp), %rsi
	movq	-136(%rbp), %rdi        ## 8-byte Reload
	callq	__ZNSt3__113unordered_mapIiyNS_4hashIiEENS_8equal_toIiEENS_9allocatorINS_4pairIKiyEEEEEixEOi
Ltmp37:
	movq	%rax, -144(%rbp)        ## 8-byte Spill
	jmp	LBB61_1
LBB61_1:
	movq	-144(%rbp), %rax        ## 8-byte Reload
	movq	$1, (%rax)
	movl	$1, -80(%rbp)
LBB61_2:                                ## =>This Inner Loop Header: Depth=1
	movl	-80(%rbp), %eax
	cmpl	-4(%rbp), %eax
	ja	LBB61_8
## %bb.3:                               ##   in Loop: Header=BB61_2 Depth=1
	movl	-80(%rbp), %eax
	decl	%eax
	movl	%eax, -92(%rbp)
Ltmp58:
	leaq	-56(%rbp), %rdi
	leaq	-92(%rbp), %rsi
	callq	__ZNSt3__113unordered_mapIiyNS_4hashIiEENS_8equal_toIiEENS_9allocatorINS_4pairIKiyEEEEEixEOi
Ltmp59:
	movq	%rax, -152(%rbp)        ## 8-byte Spill
	jmp	LBB61_4
LBB61_4:                                ##   in Loop: Header=BB61_2 Depth=1
	movq	-152(%rbp), %rax        ## 8-byte Reload
	movq	(%rax), %rcx
	movslq	-80(%rbp), %rdx
	imulq	%rdx, %rcx
	movq	%rcx, -88(%rbp)
	movq	-88(%rbp), %rcx
Ltmp60:
	leaq	-56(%rbp), %rdi
	leaq	-80(%rbp), %rsi
	movq	%rcx, -160(%rbp)        ## 8-byte Spill
	callq	__ZNSt3__113unordered_mapIiyNS_4hashIiEENS_8equal_toIiEENS_9allocatorINS_4pairIKiyEEEEEixERS7_
Ltmp61:
	movq	%rax, -168(%rbp)        ## 8-byte Spill
	jmp	LBB61_5
LBB61_5:                                ##   in Loop: Header=BB61_2 Depth=1
	movq	-168(%rbp), %rax        ## 8-byte Reload
	movq	-160(%rbp), %rcx        ## 8-byte Reload
	movq	%rcx, (%rax)
## %bb.6:                               ##   in Loop: Header=BB61_2 Depth=1
	movl	-80(%rbp), %eax
	addl	$1, %eax
	movl	%eax, -80(%rbp)
	jmp	LBB61_2
LBB61_7:
Ltmp62:
                                        ## kill: def $edx killed $edx killed $rdx
	movq	%rax, -72(%rbp)
	movl	%edx, -76(%rbp)
	leaq	-56(%rbp), %rdi
	callq	__ZNSt3__113unordered_mapIiyNS_4hashIiEENS_8equal_toIiEENS_9allocatorINS_4pairIKiyEEEEED1Ev
	jmp	LBB61_19
LBB61_8:
	callq	__ZNSt3__16chrono12steady_clock3nowEv
	movq	%rax, -104(%rbp)
Ltmp38:
	movq	__ZNSt3__14coutE@GOTPCREL(%rip), %rdi
	leaq	L_.str.8(%rip), %rsi
	callq	__ZNSt3__1lsINS_11char_traitsIcEEEERNS_13basic_ostreamIcT_EES6_PKc
Ltmp39:
	movq	%rax, -176(%rbp)        ## 8-byte Spill
	jmp	LBB61_9
LBB61_9:
Ltmp40:
	leaq	-104(%rbp), %rdi
	leaq	-16(%rbp), %rsi
	callq	__ZNSt3__16chronomiINS0_12steady_clockENS0_8durationIxNS_5ratioILl1ELl1000000000EEEEES6_EENS_11common_typeIJT0_T1_EE4typeERKNS0_10time_pointIT_S8_EERKNSC_ISD_S9_EE
Ltmp41:
	movq	%rax, -184(%rbp)        ## 8-byte Spill
	jmp	LBB61_10
LBB61_10:
	movq	-184(%rbp), %rax        ## 8-byte Reload
	movq	%rax, -120(%rbp)
Ltmp42:
	leaq	-120(%rbp), %rdi
	callq	__ZNSt3__16chronoL13duration_castINS0_8durationIxNS_5ratioILl1ELl1000000EEEEExNS3_ILl1ELl1000000000EEEEENS_9enable_ifIXsr13__is_durationIT_EE5valueES8_E4typeERKNS2_IT0_T1_EE
Ltmp43:
	movq	%rax, -192(%rbp)        ## 8-byte Spill
	jmp	LBB61_11
LBB61_11:
	movq	-192(%rbp), %rax        ## 8-byte Reload
	movq	%rax, -112(%rbp)
Ltmp44:
	leaq	-112(%rbp), %rdi
	callq	__ZNKSt3__16chrono8durationIxNS_5ratioILl1ELl1000000EEEE5countEv
Ltmp45:
	movq	%rax, -200(%rbp)        ## 8-byte Spill
	jmp	LBB61_12
LBB61_12:
Ltmp46:
	movq	-176(%rbp), %rdi        ## 8-byte Reload
	movq	-200(%rbp), %rsi        ## 8-byte Reload
	callq	__ZNSt3__113basic_ostreamIcNS_11char_traitsIcEEElsEx
Ltmp47:
	movq	%rax, -208(%rbp)        ## 8-byte Spill
	jmp	LBB61_13
LBB61_13:
Ltmp48:
	leaq	L_.str.9(%rip), %rsi
	movq	-208(%rbp), %rdi        ## 8-byte Reload
	callq	__ZNSt3__1lsINS_11char_traitsIcEEEERNS_13basic_ostreamIcT_EES6_PKc
Ltmp49:
	movq	%rax, -216(%rbp)        ## 8-byte Spill
	jmp	LBB61_14
LBB61_14:
	movl	-4(%rbp), %eax
	movl	%eax, -124(%rbp)
Ltmp50:
	leaq	-56(%rbp), %rdi
	leaq	-124(%rbp), %rsi
	callq	__ZNSt3__113unordered_mapIiyNS_4hashIiEENS_8equal_toIiEENS_9allocatorINS_4pairIKiyEEEEEixEOi
Ltmp51:
	movq	%rax, -224(%rbp)        ## 8-byte Spill
	jmp	LBB61_15
LBB61_15:
	movq	-224(%rbp), %rax        ## 8-byte Reload
	movq	(%rax), %rsi
Ltmp52:
	movq	-216(%rbp), %rdi        ## 8-byte Reload
	callq	__ZNSt3__113basic_ostreamIcNS_11char_traitsIcEEElsEy
Ltmp53:
	movq	%rax, -232(%rbp)        ## 8-byte Spill
	jmp	LBB61_16
LBB61_16:
Ltmp54:
	leaq	__ZNSt3__1L4endlIcNS_11char_traitsIcEEEERNS_13basic_ostreamIT_T0_EES7_(%rip), %rsi
	movq	-232(%rbp), %rdi        ## 8-byte Reload
	callq	__ZNSt3__113basic_ostreamIcNS_11char_traitsIcEEElsEPFRS3_S4_E
Ltmp55:
	jmp	LBB61_17
LBB61_17:
	movl	-4(%rbp), %eax
	movl	%eax, -128(%rbp)
Ltmp56:
	leaq	-56(%rbp), %rdi
	leaq	-128(%rbp), %rsi
	callq	__ZNSt3__113unordered_mapIiyNS_4hashIiEENS_8equal_toIiEENS_9allocatorINS_4pairIKiyEEEEEixEOi
Ltmp57:
	movq	%rax, -240(%rbp)        ## 8-byte Spill
	jmp	LBB61_18
LBB61_18:
	movq	-240(%rbp), %rax        ## 8-byte Reload
	movq	(%rax), %rax
	leaq	-56(%rbp), %rdi
	movq	%rax, -248(%rbp)        ## 8-byte Spill
	callq	__ZNSt3__113unordered_mapIiyNS_4hashIiEENS_8equal_toIiEENS_9allocatorINS_4pairIKiyEEEEED1Ev
	movq	-248(%rbp), %rax        ## 8-byte Reload
	addq	$256, %rsp              ## imm = 0x100
	popq	%rbp
	retq
LBB61_19:
	movq	-72(%rbp), %rdi
	callq	__Unwind_Resume
	ud2
Lfunc_end3:
	.cfi_endproc
	.section	__TEXT,__gcc_except_tab
	.p2align	2
GCC_except_table61:
Lexception3:
	.byte	255                     ## @LPStart Encoding = omit
	.byte	255                     ## @TType Encoding = omit
	.byte	1                       ## Call site Encoding = uleb128
	.uleb128 Lcst_end3-Lcst_begin3
Lcst_begin3:
	.uleb128 Ltmp36-Lfunc_begin3    ## >> Call Site 1 <<
	.uleb128 Ltmp57-Ltmp36          ##   Call between Ltmp36 and Ltmp57
	.uleb128 Ltmp62-Lfunc_begin3    ##     jumps to Ltmp62
	.byte	0                       ##   On action: cleanup
	.uleb128 Ltmp57-Lfunc_begin3    ## >> Call Site 2 <<
	.uleb128 Lfunc_end3-Ltmp57      ##   Call between Ltmp57 and Lfunc_end3
	.byte	0                       ##     has no landing pad
	.byte	0                       ##   On action: cleanup
Lcst_end3:
	.p2align	2
                                        ## -- End function
	.section	__TEXT,__text,regular,pure_instructions
	.p2align	4, 0x90         ## -- Begin function _ZNSt3__113unordered_mapIiyNS_4hashIiEENS_8equal_toIiEENS_9allocatorINS_4pairIKiyEEEEEC1Ev
__ZNSt3__113unordered_mapIiyNS_4hashIiEENS_8equal_toIiEENS_9allocatorINS_4pairIKiyEEEEEC1Ev: ## @_ZNSt3__113unordered_mapIiyNS_4hashIiEENS_8equal_toIiEENS_9allocatorINS_4pairIKiyEEEEEC1Ev
	.cfi_startproc
## %bb.0:
	pushq	%rbp
	.cfi_def_cfa_offset 16
	.cfi_offset %rbp, -16
	movq	%rsp, %rbp
	.cfi_def_cfa_register %rbp
	subq	$16, %rsp
	movq	%rdi, -8(%rbp)
	movq	-8(%rbp), %rdi
	callq	__ZNSt3__113unordered_mapIiyNS_4hashIiEENS_8equal_toIiEENS_9allocatorINS_4pairIKiyEEEEEC2Ev
	addq	$16, %rsp
	popq	%rbp
	retq
	.cfi_endproc
                                        ## -- End function
	.globl	__ZNSt3__113unordered_mapIiyNS_4hashIiEENS_8equal_toIiEENS_9allocatorINS_4pairIKiyEEEEEixEOi ## -- Begin function _ZNSt3__113unordered_mapIiyNS_4hashIiEENS_8equal_toIiEENS_9allocatorINS_4pairIKiyEEEEEixEOi
	.weak_definition	__ZNSt3__113unordered_mapIiyNS_4hashIiEENS_8equal_toIiEENS_9allocatorINS_4pairIKiyEEEEEixEOi
	.p2align	4, 0x90
__ZNSt3__113unordered_mapIiyNS_4hashIiEENS_8equal_toIiEENS_9allocatorINS_4pairIKiyEEEEEixEOi: ## @_ZNSt3__113unordered_mapIiyNS_4hashIiEENS_8equal_toIiEENS_9allocatorINS_4pairIKiyEEEEEixEOi
	.cfi_startproc
## %bb.0:
	pushq	%rbp
	.cfi_def_cfa_offset 16
	.cfi_offset %rbp, -16
	movq	%rsp, %rbp
	.cfi_def_cfa_register %rbp
	subq	$80, %rsp
	movq	%rdi, -8(%rbp)
	movq	%rsi, -16(%rbp)
	movq	-8(%rbp), %rdi
	movq	-16(%rbp), %rsi
	movq	-16(%rbp), %rax
	movq	%rdi, -64(%rbp)         ## 8-byte Spill
	movq	%rax, %rdi
	movq	%rsi, -72(%rbp)         ## 8-byte Spill
	callq	__ZNSt3__1L4moveIRiEEONS_16remove_referenceIT_E4typeEOS3_
	movq	%rax, %rdi
	callq	__ZNSt3__1L16forward_as_tupleIJiEEENS_5tupleIJDpOT_EEES4_
	movq	%rax, -40(%rbp)
	callq	__ZNSt3__1L16forward_as_tupleIJEEENS_5tupleIJDpOT_EEES4_
	movq	-64(%rbp), %rdi         ## 8-byte Reload
	movq	-72(%rbp), %rsi         ## 8-byte Reload
	leaq	__ZNSt3__1L19piecewise_constructE(%rip), %rdx
	leaq	-40(%rbp), %rcx
	leaq	-48(%rbp), %r8
	callq	__ZNSt3__112__hash_tableINS_17__hash_value_typeIiyEENS_22__unordered_map_hasherIiS2_NS_4hashIiEELb1EEENS_21__unordered_map_equalIiS2_NS_8equal_toIiEELb1EEENS_9allocatorIS2_EEE25__emplace_unique_key_argsIiJRKNS_21piecewise_construct_tENS_5tupleIJOiEEENSI_IJEEEEEENS_4pairINS_15__hash_iteratorIPNS_11__hash_nodeIS2_PvEEEEbEERKT_DpOT0_
	leaq	-32(%rbp), %rdi
	movq	%rax, -32(%rbp)
	movb	%dl, -24(%rbp)
	callq	__ZNKSt3__115__hash_iteratorIPNS_11__hash_nodeINS_17__hash_value_typeIiyEEPvEEEptEv
	movq	%rax, %rdi
	callq	__ZNSt3__117__hash_value_typeIiyE11__get_valueEv
	addq	$8, %rax
	addq	$80, %rsp
	popq	%rbp
	retq
	.cfi_endproc
                                        ## -- End function
	.globl	__ZNSt3__113unordered_mapIiyNS_4hashIiEENS_8equal_toIiEENS_9allocatorINS_4pairIKiyEEEEEixERS7_ ## -- Begin function _ZNSt3__113unordered_mapIiyNS_4hashIiEENS_8equal_toIiEENS_9allocatorINS_4pairIKiyEEEEEixERS7_
	.weak_definition	__ZNSt3__113unordered_mapIiyNS_4hashIiEENS_8equal_toIiEENS_9allocatorINS_4pairIKiyEEEEEixERS7_
	.p2align	4, 0x90
__ZNSt3__113unordered_mapIiyNS_4hashIiEENS_8equal_toIiEENS_9allocatorINS_4pairIKiyEEEEEixERS7_: ## @_ZNSt3__113unordered_mapIiyNS_4hashIiEENS_8equal_toIiEENS_9allocatorINS_4pairIKiyEEEEEixERS7_
	.cfi_startproc
## %bb.0:
	pushq	%rbp
	.cfi_def_cfa_offset 16
	.cfi_offset %rbp, -16
	movq	%rsp, %rbp
	.cfi_def_cfa_register %rbp
	subq	$80, %rsp
	movq	%rdi, -8(%rbp)
	movq	%rsi, -16(%rbp)
	movq	-8(%rbp), %rdi
	movq	-16(%rbp), %rsi
	movq	-16(%rbp), %rax
	movq	%rdi, -64(%rbp)         ## 8-byte Spill
	movq	%rax, %rdi
	movq	%rsi, -72(%rbp)         ## 8-byte Spill
	callq	__ZNSt3__1L16forward_as_tupleIJRKiEEENS_5tupleIJDpOT_EEES6_
	movq	%rax, -40(%rbp)
	callq	__ZNSt3__1L16forward_as_tupleIJEEENS_5tupleIJDpOT_EEES4_
	movq	-64(%rbp), %rdi         ## 8-byte Reload
	movq	-72(%rbp), %rsi         ## 8-byte Reload
	leaq	__ZNSt3__1L19piecewise_constructE(%rip), %rdx
	leaq	-40(%rbp), %rcx
	leaq	-48(%rbp), %r8
	callq	__ZNSt3__112__hash_tableINS_17__hash_value_typeIiyEENS_22__unordered_map_hasherIiS2_NS_4hashIiEELb1EEENS_21__unordered_map_equalIiS2_NS_8equal_toIiEELb1EEENS_9allocatorIS2_EEE25__emplace_unique_key_argsIiJRKNS_21piecewise_construct_tENS_5tupleIJRKiEEENSI_IJEEEEEENS_4pairINS_15__hash_iteratorIPNS_11__hash_nodeIS2_PvEEEEbEERKT_DpOT0_
	leaq	-32(%rbp), %rdi
	movq	%rax, -32(%rbp)
	movb	%dl, -24(%rbp)
	callq	__ZNKSt3__115__hash_iteratorIPNS_11__hash_nodeINS_17__hash_value_typeIiyEEPvEEEptEv
	movq	%rax, %rdi
	callq	__ZNSt3__117__hash_value_typeIiyE11__get_valueEv
	addq	$8, %rax
	addq	$80, %rsp
	popq	%rbp
	retq
	.cfi_endproc
                                        ## -- End function
	.p2align	4, 0x90         ## -- Begin function _ZNSt3__16chronoL13duration_castINS0_8durationIxNS_5ratioILl1ELl1000000EEEEExNS3_ILl1ELl1000000000EEEEENS_9enable_ifIXsr13__is_durationIT_EE5valueES8_E4typeERKNS2_IT0_T1_EE
__ZNSt3__16chronoL13duration_castINS0_8durationIxNS_5ratioILl1ELl1000000EEEEExNS3_ILl1ELl1000000000EEEEENS_9enable_ifIXsr13__is_durationIT_EE5valueES8_E4typeERKNS2_IT0_T1_EE: ## @_ZNSt3__16chronoL13duration_castINS0_8durationIxNS_5ratioILl1ELl1000000EEEEExNS3_ILl1ELl1000000000EEEEENS_9enable_ifIXsr13__is_durationIT_EE5valueES8_E4typeERKNS2_IT0_T1_EE
	.cfi_startproc
## %bb.0:
	pushq	%rbp
	.cfi_def_cfa_offset 16
	.cfi_offset %rbp, -16
	movq	%rsp, %rbp
	.cfi_def_cfa_register %rbp
	subq	$32, %rsp
	movq	%rdi, -16(%rbp)
	movq	-16(%rbp), %rsi
	leaq	-24(%rbp), %rdi
	callq	__ZNKSt3__16chrono15__duration_castINS0_8durationIxNS_5ratioILl1ELl1000000000EEEEENS2_IxNS3_ILl1ELl1000000EEEEENS3_ILl1ELl1000EEELb1ELb0EEclERKS5_
	movq	%rax, -8(%rbp)
	movq	-8(%rbp), %rax
	addq	$32, %rsp
	popq	%rbp
	retq
	.cfi_endproc
                                        ## -- End function
	.p2align	4, 0x90         ## -- Begin function _ZNKSt3__16chrono8durationIxNS_5ratioILl1ELl1000000EEEE5countEv
__ZNKSt3__16chrono8durationIxNS_5ratioILl1ELl1000000EEEE5countEv: ## @_ZNKSt3__16chrono8durationIxNS_5ratioILl1ELl1000000EEEE5countEv
	.cfi_startproc
## %bb.0:
	pushq	%rbp
	.cfi_def_cfa_offset 16
	.cfi_offset %rbp, -16
	movq	%rsp, %rbp
	.cfi_def_cfa_register %rbp
	movq	%rdi, -8(%rbp)
	movq	-8(%rbp), %rax
	movq	(%rax), %rax
	popq	%rbp
	retq
	.cfi_endproc
                                        ## -- End function
	.p2align	4, 0x90         ## -- Begin function _ZNSt3__113unordered_mapIiyNS_4hashIiEENS_8equal_toIiEENS_9allocatorINS_4pairIKiyEEEEED1Ev
__ZNSt3__113unordered_mapIiyNS_4hashIiEENS_8equal_toIiEENS_9allocatorINS_4pairIKiyEEEEED1Ev: ## @_ZNSt3__113unordered_mapIiyNS_4hashIiEENS_8equal_toIiEENS_9allocatorINS_4pairIKiyEEEEED1Ev
	.cfi_startproc
## %bb.0:
	pushq	%rbp
	.cfi_def_cfa_offset 16
	.cfi_offset %rbp, -16
	movq	%rsp, %rbp
	.cfi_def_cfa_register %rbp
	subq	$16, %rsp
	movq	%rdi, -8(%rbp)
	movq	-8(%rbp), %rdi
	callq	__ZNSt3__113unordered_mapIiyNS_4hashIiEENS_8equal_toIiEENS_9allocatorINS_4pairIKiyEEEEED2Ev
	addq	$16, %rsp
	popq	%rbp
	retq
	.cfi_endproc
                                        ## -- End function
	.globl	__Z9enumerateii         ## -- Begin function _Z9enumerateii
	.p2align	4, 0x90
__Z9enumerateii:                        ## @_Z9enumerateii
	.cfi_startproc
## %bb.0:
	pushq	%rbp
	.cfi_def_cfa_offset 16
	.cfi_offset %rbp, -16
	movq	%rsp, %rbp
	.cfi_def_cfa_register %rbp
	subq	$16, %rsp
	movl	%edi, -4(%rbp)
	movl	%esi, -8(%rbp)
	movl	-4(%rbp), %eax
	cmpl	-8(%rbp), %eax
	jle	LBB68_6
## %bb.1:
	movl	$1, -12(%rbp)
LBB68_2:                                ## =>This Inner Loop Header: Depth=1
	movl	-12(%rbp), %eax
	cmpl	-8(%rbp), %eax
	jg	LBB68_5
## %bb.3:                               ##   in Loop: Header=BB68_2 Depth=1
	movq	__ZNSt3__14coutE@GOTPCREL(%rip), %rdi
	movslq	-12(%rbp), %rax
	leaq	_arrE(%rip), %rcx
	movl	(%rcx,%rax,4), %esi
	callq	__ZNSt3__113basic_ostreamIcNS_11char_traitsIcEEElsEi
## %bb.4:                               ##   in Loop: Header=BB68_2 Depth=1
	movl	-12(%rbp), %eax
	addl	$1, %eax
	movl	%eax, -12(%rbp)
	jmp	LBB68_2
LBB68_5:
	movq	__ZNSt3__14coutE@GOTPCREL(%rip), %rdi
	leaq	__ZNSt3__1L4endlIcNS_11char_traitsIcEEEERNS_13basic_ostreamIT_T0_EES7_(%rip), %rsi
	callq	__ZNSt3__113basic_ostreamIcNS_11char_traitsIcEEElsEPFRS3_S4_E
	jmp	LBB68_10
LBB68_6:
	movl	$1, -16(%rbp)
LBB68_7:                                ## =>This Inner Loop Header: Depth=1
	cmpl	$3, -16(%rbp)
	jg	LBB68_10
## %bb.8:                               ##   in Loop: Header=BB68_7 Depth=1
	movl	-16(%rbp), %eax
	movslq	-4(%rbp), %rcx
	leaq	_arrE(%rip), %rdx
	movl	%eax, (%rdx,%rcx,4)
	movl	-4(%rbp), %eax
	addl	$1, %eax
	movl	-8(%rbp), %esi
	movl	%eax, %edi
	callq	__Z9enumerateii
## %bb.9:                               ##   in Loop: Header=BB68_7 Depth=1
	movl	-16(%rbp), %eax
	addl	$1, %eax
	movl	%eax, -16(%rbp)
	jmp	LBB68_7
LBB68_10:
	addq	$16, %rsp
	popq	%rbp
	retq
	.cfi_endproc
                                        ## -- End function
	.globl	__Z9callAsArrPim        ## -- Begin function _Z9callAsArrPim
	.p2align	4, 0x90
__Z9callAsArrPim:                       ## @_Z9callAsArrPim
	.cfi_startproc
## %bb.0:
	pushq	%rbp
	.cfi_def_cfa_offset 16
	.cfi_offset %rbp, -16
	movq	%rsp, %rbp
	.cfi_def_cfa_register %rbp
	subq	$32, %rsp
	movq	%rdi, -8(%rbp)
	movq	%rsi, -16(%rbp)
	movl	$0, -20(%rbp)
LBB69_1:                                ## =>This Inner Loop Header: Depth=1
	movslq	-20(%rbp), %rax
	cmpq	-16(%rbp), %rax
	jae	LBB69_4
## %bb.2:                               ##   in Loop: Header=BB69_1 Depth=1
	movq	__ZNSt3__14coutE@GOTPCREL(%rip), %rdi
	movq	-8(%rbp), %rax
	movslq	-20(%rbp), %rcx
	movl	(%rax,%rcx,4), %esi
	callq	__ZNSt3__113basic_ostreamIcNS_11char_traitsIcEEElsEi
	movq	%rax, %rdi
	leaq	__ZNSt3__1L4endlIcNS_11char_traitsIcEEEERNS_13basic_ostreamIT_T0_EES7_(%rip), %rsi
	callq	__ZNSt3__113basic_ostreamIcNS_11char_traitsIcEEElsEPFRS3_S4_E
## %bb.3:                               ##   in Loop: Header=BB69_1 Depth=1
	movl	-20(%rbp), %eax
	addl	$1, %eax
	movl	%eax, -20(%rbp)
	jmp	LBB69_1
LBB69_4:
	addq	$32, %rsp
	popq	%rbp
	retq
	.cfi_endproc
                                        ## -- End function
	.globl	__Z11PermutationPim     ## -- Begin function _Z11PermutationPim
	.p2align	4, 0x90
__Z11PermutationPim:                    ## @_Z11PermutationPim
	.cfi_startproc
## %bb.0:
	pushq	%rbp
	.cfi_def_cfa_offset 16
	.cfi_offset %rbp, -16
	movq	%rsp, %rbp
	.cfi_def_cfa_register %rbp
	subq	$16, %rsp
	movq	%rdi, -8(%rbp)
	movq	%rsi, -16(%rbp)
	movq	-8(%rbp), %rdi
	movq	-8(%rbp), %rax
	movq	-16(%rbp), %rcx
	shlq	$2, %rcx
	addq	%rcx, %rax
	movq	%rax, %rsi
	callq	__ZNSt3__1L4sortIPiEEvT_S2_
LBB70_1:                                ## =>This Inner Loop Header: Depth=1
	movq	__ZNSt3__14coutE@GOTPCREL(%rip), %rdi
	movq	-8(%rbp), %rax
	movl	(%rax), %esi
	callq	__ZNSt3__113basic_ostreamIcNS_11char_traitsIcEEElsEi
	movq	-8(%rbp), %rcx
	movl	4(%rcx), %esi
	movq	%rax, %rdi
	callq	__ZNSt3__113basic_ostreamIcNS_11char_traitsIcEEElsEi
	movq	-8(%rbp), %rcx
	movl	8(%rcx), %esi
	movq	%rax, %rdi
	callq	__ZNSt3__113basic_ostreamIcNS_11char_traitsIcEEElsEi
	movq	%rax, %rdi
	leaq	__ZNSt3__1L4endlIcNS_11char_traitsIcEEEERNS_13basic_ostreamIT_T0_EES7_(%rip), %rsi
	callq	__ZNSt3__113basic_ostreamIcNS_11char_traitsIcEEElsEPFRS3_S4_E
## %bb.2:                               ##   in Loop: Header=BB70_1 Depth=1
	movq	-8(%rbp), %rdi
	movq	-8(%rbp), %rax
	movq	-16(%rbp), %rcx
	shlq	$2, %rcx
	addq	%rcx, %rax
	movq	%rax, %rsi
	callq	__ZNSt3__1L16next_permutationIPiEEbT_S2_
	testb	$1, %al
	jne	LBB70_1
## %bb.3:
	addq	$16, %rsp
	popq	%rbp
	retq
	.cfi_endproc
                                        ## -- End function
	.p2align	4, 0x90         ## -- Begin function _ZNSt3__1L4sortIPiEEvT_S2_
__ZNSt3__1L4sortIPiEEvT_S2_:            ## @_ZNSt3__1L4sortIPiEEvT_S2_
	.cfi_startproc
## %bb.0:
	pushq	%rbp
	.cfi_def_cfa_offset 16
	.cfi_offset %rbp, -16
	movq	%rsp, %rbp
	.cfi_def_cfa_register %rbp
	subq	$32, %rsp
	movq	%rdi, -8(%rbp)
	movq	%rsi, -16(%rbp)
	movq	-8(%rbp), %rdi
	movq	-16(%rbp), %rsi
	callq	__ZNSt3__1L4sortIPiNS_6__lessIiiEEEEvT_S4_T0_
	addq	$32, %rsp
	popq	%rbp
	retq
	.cfi_endproc
                                        ## -- End function
	.p2align	4, 0x90         ## -- Begin function _ZNSt3__1L16next_permutationIPiEEbT_S2_
__ZNSt3__1L16next_permutationIPiEEbT_S2_: ## @_ZNSt3__1L16next_permutationIPiEEbT_S2_
	.cfi_startproc
## %bb.0:
	pushq	%rbp
	.cfi_def_cfa_offset 16
	.cfi_offset %rbp, -16
	movq	%rsp, %rbp
	.cfi_def_cfa_register %rbp
	subq	$32, %rsp
	movq	%rdi, -8(%rbp)
	movq	%rsi, -16(%rbp)
	movq	-8(%rbp), %rdi
	movq	-16(%rbp), %rsi
	callq	__ZNSt3__1L16next_permutationIPiNS_6__lessIiiEEEEbT_S4_T0_
	andb	$1, %al
	movzbl	%al, %eax
	addq	$32, %rsp
	popq	%rbp
	retq
	.cfi_endproc
                                        ## -- End function
	.globl	__Z15deleteAndInsertv   ## -- Begin function _Z15deleteAndInsertv
	.p2align	4, 0x90
__Z15deleteAndInsertv:                  ## @_Z15deleteAndInsertv
Lfunc_begin4:
	.cfi_startproc
	.cfi_personality 155, ___gxx_personality_v0
	.cfi_lsda 16, Lexception4
## %bb.0:
	pushq	%rbp
	.cfi_def_cfa_offset 16
	.cfi_offset %rbp, -16
	movq	%rsp, %rbp
	.cfi_def_cfa_register %rbp
	subq	$288, %rsp              ## imm = 0x120
	leaq	-56(%rbp), %rax
	leaq	l_constinit(%rip), %rcx
	movq	___stack_chk_guard@GOTPCREL(%rip), %rdx
	movq	(%rdx), %rdx
	movq	%rdx, -8(%rbp)
	movq	%rax, %rdx
	movq	%rdx, %rdi
	movq	%rcx, %rsi
	movl	$48, %edx
	movq	%rax, -224(%rbp)        ## 8-byte Spill
	callq	_memcpy
	movq	-224(%rbp), %rax        ## 8-byte Reload
	movq	%rax, -96(%rbp)
	movq	$12, -88(%rbp)
	movq	-96(%rbp), %rsi
	movq	-88(%rbp), %rdx
	leaq	-80(%rbp), %rdi
	callq	__ZNSt3__14listIiNS_9allocatorIiEEEC1ESt16initializer_listIiE
	movl	$0, -100(%rbp)
	leaq	-80(%rbp), %rdi
	callq	__ZNKSt3__14listIiNS_9allocatorIiEEE6cbeginEv
	movq	%rax, -112(%rbp)
LBB73_1:                                ## =>This Inner Loop Header: Depth=1
	leaq	-80(%rbp), %rdi
	callq	__ZNKSt3__14listIiNS_9allocatorIiEEE4cendEv
	movq	%rax, -120(%rbp)
Ltmp63:
	leaq	-112(%rbp), %rdi
	leaq	-120(%rbp), %rsi
	callq	__ZNSt3__1neERKNS_21__list_const_iteratorIiPvEES4_
Ltmp64:
	movb	%al, -225(%rbp)         ## 1-byte Spill
	jmp	LBB73_2
LBB73_2:                                ##   in Loop: Header=BB73_1 Depth=1
	movb	-225(%rbp), %al         ## 1-byte Reload
	testb	$1, %al
	jne	LBB73_3
	jmp	LBB73_13
LBB73_3:                                ##   in Loop: Header=BB73_1 Depth=1
Ltmp75:
	leaq	-112(%rbp), %rdi
	callq	__ZNKSt3__121__list_const_iteratorIiPvEdeEv
Ltmp76:
	movq	%rax, -240(%rbp)        ## 8-byte Spill
	jmp	LBB73_4
LBB73_4:                                ##   in Loop: Header=BB73_1 Depth=1
	movq	-240(%rbp), %rax        ## 8-byte Reload
	movl	(%rax), %ecx
	movl	%ecx, %eax
	cltd
	movl	$2, %ecx
	idivl	%ecx
	cmpl	$0, %edx
	jne	LBB73_8
## %bb.5:                               ##   in Loop: Header=BB73_1 Depth=1
	movq	-112(%rbp), %rax
	movq	%rax, -160(%rbp)
	movq	-160(%rbp), %rsi
Ltmp83:
	leaq	-80(%rbp), %rdi
	callq	__ZNSt3__14listIiNS_9allocatorIiEEE5eraseENS_21__list_const_iteratorIiPvEE
Ltmp84:
	movq	%rax, -248(%rbp)        ## 8-byte Spill
	jmp	LBB73_6
LBB73_6:                                ##   in Loop: Header=BB73_1 Depth=1
	movq	-248(%rbp), %rax        ## 8-byte Reload
	movq	%rax, -152(%rbp)
	leaq	-144(%rbp), %rdi
	leaq	-152(%rbp), %rsi
	callq	__ZNSt3__121__list_const_iteratorIiPvEC1ERKNS_15__list_iteratorIiS1_EE
	movq	-144(%rbp), %rax
	movq	%rax, -112(%rbp)
	jmp	LBB73_12
LBB73_7:
Ltmp85:
                                        ## kill: def $edx killed $edx killed $rdx
	movq	%rax, -128(%rbp)
	movl	%edx, -132(%rbp)
	leaq	-80(%rbp), %rdi
	callq	__ZNSt3__14listIiNS_9allocatorIiEEED1Ev
	jmp	LBB73_24
LBB73_8:                                ##   in Loop: Header=BB73_1 Depth=1
	movq	-112(%rbp), %rax
	movq	%rax, -184(%rbp)
Ltmp77:
	leaq	-112(%rbp), %rdi
	callq	__ZNKSt3__121__list_const_iteratorIiPvEdeEv
Ltmp78:
	movq	%rax, -256(%rbp)        ## 8-byte Spill
	jmp	LBB73_9
LBB73_9:                                ##   in Loop: Header=BB73_1 Depth=1
	movq	-184(%rbp), %rsi
Ltmp79:
	leaq	-80(%rbp), %rdi
	movq	-256(%rbp), %rdx        ## 8-byte Reload
	callq	__ZNSt3__14listIiNS_9allocatorIiEEE6insertENS_21__list_const_iteratorIiPvEERKi
Ltmp80:
	movq	%rax, -264(%rbp)        ## 8-byte Spill
	jmp	LBB73_10
LBB73_10:                               ##   in Loop: Header=BB73_1 Depth=1
	movq	-264(%rbp), %rax        ## 8-byte Reload
	movq	%rax, -176(%rbp)
	leaq	-168(%rbp), %rdi
	leaq	-176(%rbp), %rsi
	callq	__ZNSt3__121__list_const_iteratorIiPvEC1ERKNS_15__list_iteratorIiS1_EE
	movq	-168(%rbp), %rax
	movq	%rax, -112(%rbp)
Ltmp81:
	leaq	-112(%rbp), %rdi
	movl	$2, %esi
	callq	__ZNSt3__1L7advanceINS_21__list_const_iteratorIiPvEEEEvRT_NS_15iterator_traitsIS4_E15difference_typeE
Ltmp82:
	jmp	LBB73_11
LBB73_11:                               ##   in Loop: Header=BB73_1 Depth=1
	jmp	LBB73_12
LBB73_12:                               ##   in Loop: Header=BB73_1 Depth=1
	jmp	LBB73_1
LBB73_13:
	leaq	-80(%rbp), %rax
	movq	%rax, -192(%rbp)
	movq	-192(%rbp), %rdi
	callq	__ZNSt3__14listIiNS_9allocatorIiEEE5beginEv
	movq	%rax, -200(%rbp)
	movq	-192(%rbp), %rdi
	callq	__ZNSt3__14listIiNS_9allocatorIiEEE3endEv
	movq	%rax, -208(%rbp)
LBB73_14:                               ## =>This Inner Loop Header: Depth=1
Ltmp65:
	leaq	-200(%rbp), %rdi
	leaq	-208(%rbp), %rsi
	callq	__ZNSt3__1neERKNS_15__list_iteratorIiPvEES4_
Ltmp66:
	movb	%al, -265(%rbp)         ## 1-byte Spill
	jmp	LBB73_15
LBB73_15:                               ##   in Loop: Header=BB73_14 Depth=1
	movb	-265(%rbp), %al         ## 1-byte Reload
	testb	$1, %al
	jne	LBB73_16
	jmp	LBB73_22
LBB73_16:                               ##   in Loop: Header=BB73_14 Depth=1
Ltmp67:
	leaq	-200(%rbp), %rdi
	callq	__ZNKSt3__115__list_iteratorIiPvEdeEv
Ltmp68:
	movq	%rax, -280(%rbp)        ## 8-byte Spill
	jmp	LBB73_17
LBB73_17:                               ##   in Loop: Header=BB73_14 Depth=1
	movq	-280(%rbp), %rax        ## 8-byte Reload
	movq	%rax, -216(%rbp)
	movq	-216(%rbp), %rcx
	movl	(%rcx), %esi
Ltmp69:
	movq	__ZNSt3__14coutE@GOTPCREL(%rip), %rdi
	callq	__ZNSt3__113basic_ostreamIcNS_11char_traitsIcEEElsEi
Ltmp70:
	movq	%rax, -288(%rbp)        ## 8-byte Spill
	jmp	LBB73_18
LBB73_18:                               ##   in Loop: Header=BB73_14 Depth=1
Ltmp71:
	leaq	__ZNSt3__1L4endlIcNS_11char_traitsIcEEEERNS_13basic_ostreamIT_T0_EES7_(%rip), %rsi
	movq	-288(%rbp), %rdi        ## 8-byte Reload
	callq	__ZNSt3__113basic_ostreamIcNS_11char_traitsIcEEElsEPFRS3_S4_E
Ltmp72:
	jmp	LBB73_19
LBB73_19:                               ##   in Loop: Header=BB73_14 Depth=1
	jmp	LBB73_20
LBB73_20:                               ##   in Loop: Header=BB73_14 Depth=1
Ltmp73:
	leaq	-200(%rbp), %rdi
	callq	__ZNSt3__115__list_iteratorIiPvEppEv
Ltmp74:
	jmp	LBB73_21
LBB73_21:                               ##   in Loop: Header=BB73_14 Depth=1
	jmp	LBB73_14
LBB73_22:
	leaq	-80(%rbp), %rdi
	callq	__ZNSt3__14listIiNS_9allocatorIiEEED1Ev
	movq	___stack_chk_guard@GOTPCREL(%rip), %rax
	movq	(%rax), %rax
	movq	-8(%rbp), %rcx
	cmpq	%rcx, %rax
	jne	LBB73_25
## %bb.23:
	addq	$288, %rsp              ## imm = 0x120
	popq	%rbp
	retq
LBB73_24:
	movq	-128(%rbp), %rdi
	callq	__Unwind_Resume
	ud2
LBB73_25:
	callq	___stack_chk_fail
	ud2
Lfunc_end4:
	.cfi_endproc
	.section	__TEXT,__gcc_except_tab
	.p2align	2
GCC_except_table73:
Lexception4:
	.byte	255                     ## @LPStart Encoding = omit
	.byte	255                     ## @TType Encoding = omit
	.byte	1                       ## Call site Encoding = uleb128
	.uleb128 Lcst_end4-Lcst_begin4
Lcst_begin4:
	.uleb128 Lfunc_begin4-Lfunc_begin4 ## >> Call Site 1 <<
	.uleb128 Ltmp63-Lfunc_begin4    ##   Call between Lfunc_begin4 and Ltmp63
	.byte	0                       ##     has no landing pad
	.byte	0                       ##   On action: cleanup
	.uleb128 Ltmp63-Lfunc_begin4    ## >> Call Site 2 <<
	.uleb128 Ltmp74-Ltmp63          ##   Call between Ltmp63 and Ltmp74
	.uleb128 Ltmp85-Lfunc_begin4    ##     jumps to Ltmp85
	.byte	0                       ##   On action: cleanup
	.uleb128 Ltmp74-Lfunc_begin4    ## >> Call Site 3 <<
	.uleb128 Lfunc_end4-Ltmp74      ##   Call between Ltmp74 and Lfunc_end4
	.byte	0                       ##     has no landing pad
	.byte	0                       ##   On action: cleanup
Lcst_end4:
	.p2align	2
                                        ## -- End function
	.section	__TEXT,__text,regular,pure_instructions
	.globl	__ZNSt3__14listIiNS_9allocatorIiEEEC1ESt16initializer_listIiE ## -- Begin function _ZNSt3__14listIiNS_9allocatorIiEEEC1ESt16initializer_listIiE
	.weak_def_can_be_hidden	__ZNSt3__14listIiNS_9allocatorIiEEEC1ESt16initializer_listIiE
	.p2align	4, 0x90
__ZNSt3__14listIiNS_9allocatorIiEEEC1ESt16initializer_listIiE: ## @_ZNSt3__14listIiNS_9allocatorIiEEEC1ESt16initializer_listIiE
	.cfi_startproc
## %bb.0:
	pushq	%rbp
	.cfi_def_cfa_offset 16
	.cfi_offset %rbp, -16
	movq	%rsp, %rbp
	.cfi_def_cfa_register %rbp
	subq	$32, %rsp
	movq	%rsi, -16(%rbp)
	movq	%rdx, -8(%rbp)
	movq	%rdi, -24(%rbp)
	movq	-24(%rbp), %rdi
	movq	-16(%rbp), %rsi
	movq	-8(%rbp), %rdx
	callq	__ZNSt3__14listIiNS_9allocatorIiEEEC2ESt16initializer_listIiE
	addq	$32, %rsp
	popq	%rbp
	retq
	.cfi_endproc
                                        ## -- End function
	.p2align	4, 0x90         ## -- Begin function _ZNKSt3__14listIiNS_9allocatorIiEEE6cbeginEv
__ZNKSt3__14listIiNS_9allocatorIiEEE6cbeginEv: ## @_ZNKSt3__14listIiNS_9allocatorIiEEE6cbeginEv
	.cfi_startproc
## %bb.0:
	pushq	%rbp
	.cfi_def_cfa_offset 16
	.cfi_offset %rbp, -16
	movq	%rsp, %rbp
	.cfi_def_cfa_register %rbp
	subq	$16, %rsp
	movq	%rdi, -16(%rbp)
	movq	-16(%rbp), %rax
	movq	%rax, %rdi
	callq	__ZNKSt3__110__list_impIiNS_9allocatorIiEEE5beginEv
	movq	%rax, -8(%rbp)
	movq	-8(%rbp), %rax
	addq	$16, %rsp
	popq	%rbp
	retq
	.cfi_endproc
                                        ## -- End function
	.p2align	4, 0x90         ## -- Begin function _ZNSt3__1neERKNS_21__list_const_iteratorIiPvEES4_
__ZNSt3__1neERKNS_21__list_const_iteratorIiPvEES4_: ## @_ZNSt3__1neERKNS_21__list_const_iteratorIiPvEES4_
	.cfi_startproc
## %bb.0:
	pushq	%rbp
	.cfi_def_cfa_offset 16
	.cfi_offset %rbp, -16
	movq	%rsp, %rbp
	.cfi_def_cfa_register %rbp
	subq	$16, %rsp
	movq	%rdi, -8(%rbp)
	movq	%rsi, -16(%rbp)
	movq	-8(%rbp), %rdi
	movq	-16(%rbp), %rsi
	callq	__ZNSt3__1eqERKNS_21__list_const_iteratorIiPvEES4_
	xorb	$-1, %al
	andb	$1, %al
	movzbl	%al, %eax
	addq	$16, %rsp
	popq	%rbp
	retq
	.cfi_endproc
                                        ## -- End function
	.p2align	4, 0x90         ## -- Begin function _ZNKSt3__14listIiNS_9allocatorIiEEE4cendEv
__ZNKSt3__14listIiNS_9allocatorIiEEE4cendEv: ## @_ZNKSt3__14listIiNS_9allocatorIiEEE4cendEv
	.cfi_startproc
## %bb.0:
	pushq	%rbp
	.cfi_def_cfa_offset 16
	.cfi_offset %rbp, -16
	movq	%rsp, %rbp
	.cfi_def_cfa_register %rbp
	subq	$16, %rsp
	movq	%rdi, -16(%rbp)
	movq	-16(%rbp), %rax
	movq	%rax, %rdi
	callq	__ZNKSt3__110__list_impIiNS_9allocatorIiEEE3endEv
	movq	%rax, -8(%rbp)
	movq	-8(%rbp), %rax
	addq	$16, %rsp
	popq	%rbp
	retq
	.cfi_endproc
                                        ## -- End function
	.p2align	4, 0x90         ## -- Begin function _ZNKSt3__121__list_const_iteratorIiPvEdeEv
__ZNKSt3__121__list_const_iteratorIiPvEdeEv: ## @_ZNKSt3__121__list_const_iteratorIiPvEdeEv
	.cfi_startproc
## %bb.0:
	pushq	%rbp
	.cfi_def_cfa_offset 16
	.cfi_offset %rbp, -16
	movq	%rsp, %rbp
	.cfi_def_cfa_register %rbp
	subq	$16, %rsp
	movq	%rdi, -8(%rbp)
	movq	-8(%rbp), %rax
	movq	(%rax), %rdi
	callq	__ZNSt3__116__list_node_baseIiPvE9__as_nodeEv
	addq	$16, %rax
	addq	$16, %rsp
	popq	%rbp
	retq
	.cfi_endproc
                                        ## -- End function
	.globl	__ZNSt3__14listIiNS_9allocatorIiEEE5eraseENS_21__list_const_iteratorIiPvEE ## -- Begin function _ZNSt3__14listIiNS_9allocatorIiEEE5eraseENS_21__list_const_iteratorIiPvEE
	.weak_definition	__ZNSt3__14listIiNS_9allocatorIiEEE5eraseENS_21__list_const_iteratorIiPvEE
	.p2align	4, 0x90
__ZNSt3__14listIiNS_9allocatorIiEEE5eraseENS_21__list_const_iteratorIiPvEE: ## @_ZNSt3__14listIiNS_9allocatorIiEEE5eraseENS_21__list_const_iteratorIiPvEE
	.cfi_startproc
## %bb.0:
	pushq	%rbp
	.cfi_def_cfa_offset 16
	.cfi_offset %rbp, -16
	movq	%rsp, %rbp
	.cfi_def_cfa_register %rbp
	subq	$80, %rsp
	movq	%rsi, -16(%rbp)
	movq	%rdi, -24(%rbp)
	movq	-24(%rbp), %rax
	movq	%rax, %rcx
	movq	%rcx, %rdi
	movq	%rax, -64(%rbp)         ## 8-byte Spill
	callq	__ZNSt3__110__list_impIiNS_9allocatorIiEEE12__node_allocEv
	movq	%rax, -32(%rbp)
	movq	-16(%rbp), %rax
	movq	%rax, -40(%rbp)
	movq	-40(%rbp), %rax
	movq	8(%rax), %rax
	movq	%rax, -48(%rbp)
	movq	-40(%rbp), %rdi
	movq	-40(%rbp), %rsi
	callq	__ZNSt3__110__list_impIiNS_9allocatorIiEEE14__unlink_nodesEPNS_16__list_node_baseIiPvEES7_
	movq	-64(%rbp), %rax         ## 8-byte Reload
	movq	%rax, %rdi
	callq	__ZNSt3__110__list_impIiNS_9allocatorIiEEE4__szEv
	movq	(%rax), %rcx
	addq	$-1, %rcx
	movq	%rcx, (%rax)
	movq	-40(%rbp), %rdi
	callq	__ZNSt3__116__list_node_baseIiPvE9__as_nodeEv
	movq	%rax, -56(%rbp)
	movq	-32(%rbp), %rdi
	movq	-56(%rbp), %rax
	addq	$16, %rax
	movq	%rdi, -72(%rbp)         ## 8-byte Spill
	movq	%rax, %rdi
	callq	__ZNSt3__1L9addressofIiEEPT_RS1_
	movq	-72(%rbp), %rdi         ## 8-byte Reload
	movq	%rax, %rsi
	callq	__ZNSt3__116allocator_traitsINS_9allocatorINS_11__list_nodeIiPvEEEEE7destroyIiEEvRS5_PT_
	movq	-32(%rbp), %rdi
	movq	-56(%rbp), %rsi
	movl	$1, %edx
	callq	__ZNSt3__116allocator_traitsINS_9allocatorINS_11__list_nodeIiPvEEEEE10deallocateERS5_PS4_m
	movq	-48(%rbp), %rsi
	leaq	-8(%rbp), %rdi
	callq	__ZNSt3__115__list_iteratorIiPvEC1EPNS_16__list_node_baseIiS1_EE
	movq	-8(%rbp), %rax
	addq	$80, %rsp
	popq	%rbp
	retq
	.cfi_endproc
                                        ## -- End function
	.p2align	4, 0x90         ## -- Begin function _ZNSt3__121__list_const_iteratorIiPvEC1ERKNS_15__list_iteratorIiS1_EE
__ZNSt3__121__list_const_iteratorIiPvEC1ERKNS_15__list_iteratorIiS1_EE: ## @_ZNSt3__121__list_const_iteratorIiPvEC1ERKNS_15__list_iteratorIiS1_EE
	.cfi_startproc
## %bb.0:
	pushq	%rbp
	.cfi_def_cfa_offset 16
	.cfi_offset %rbp, -16
	movq	%rsp, %rbp
	.cfi_def_cfa_register %rbp
	subq	$16, %rsp
	movq	%rdi, -8(%rbp)
	movq	%rsi, -16(%rbp)
	movq	-8(%rbp), %rdi
	movq	-16(%rbp), %rsi
	callq	__ZNSt3__121__list_const_iteratorIiPvEC2ERKNS_15__list_iteratorIiS1_EE
	addq	$16, %rsp
	popq	%rbp
	retq
	.cfi_endproc
                                        ## -- End function
	.globl	__ZNSt3__14listIiNS_9allocatorIiEEE6insertENS_21__list_const_iteratorIiPvEERKi ## -- Begin function _ZNSt3__14listIiNS_9allocatorIiEEE6insertENS_21__list_const_iteratorIiPvEERKi
	.weak_definition	__ZNSt3__14listIiNS_9allocatorIiEEE6insertENS_21__list_const_iteratorIiPvEERKi
	.p2align	4, 0x90
__ZNSt3__14listIiNS_9allocatorIiEEE6insertENS_21__list_const_iteratorIiPvEERKi: ## @_ZNSt3__14listIiNS_9allocatorIiEEE6insertENS_21__list_const_iteratorIiPvEERKi
Lfunc_begin5:
	.cfi_startproc
	.cfi_personality 155, ___gxx_personality_v0
	.cfi_lsda 16, Lexception5
## %bb.0:
	pushq	%rbp
	.cfi_def_cfa_offset 16
	.cfi_offset %rbp, -16
	movq	%rsp, %rbp
	.cfi_def_cfa_register %rbp
	subq	$144, %rsp
	movq	%rsi, -16(%rbp)
	movq	%rdi, -24(%rbp)
	movq	%rdx, -32(%rbp)
	movq	-24(%rbp), %rax
	movq	%rax, %rdi
	movq	%rax, -88(%rbp)         ## 8-byte Spill
	callq	__ZNSt3__110__list_impIiNS_9allocatorIiEEE12__node_allocEv
	movq	%rax, -40(%rbp)
	movq	-40(%rbp), %rdx
	leaq	-64(%rbp), %rax
	movq	%rax, %rdi
	movq	-88(%rbp), %rsi         ## 8-byte Reload
	movq	%rax, -96(%rbp)         ## 8-byte Spill
	callq	__ZNSt3__14listIiNS_9allocatorIiEEE15__allocate_nodeERNS1_INS_11__list_nodeIiPvEEEE
	movq	-40(%rbp), %rdi
	movq	-96(%rbp), %rax         ## 8-byte Reload
	movq	%rdi, -104(%rbp)        ## 8-byte Spill
	movq	%rax, %rdi
	callq	__ZNKSt3__110unique_ptrINS_11__list_nodeIiPvEENS_22__allocator_destructorINS_9allocatorIS3_EEEEEptEv
	addq	$16, %rax
	movq	%rax, %rdi
	callq	__ZNSt3__1L9addressofIiEEPT_RS1_
	movq	-32(%rbp), %rdx
Ltmp86:
	movq	-104(%rbp), %rdi        ## 8-byte Reload
	movq	%rax, %rsi
	callq	__ZNSt3__116allocator_traitsINS_9allocatorINS_11__list_nodeIiPvEEEEE9constructIiJRKiEEEvRS5_PT_DpOT0_
Ltmp87:
	jmp	LBB81_1
LBB81_1:
	movq	-16(%rbp), %rdi
	leaq	-64(%rbp), %rax
	movq	%rdi, -112(%rbp)        ## 8-byte Spill
	movq	%rax, %rdi
	callq	__ZNKSt3__110unique_ptrINS_11__list_nodeIiPvEENS_22__allocator_destructorINS_9allocatorIS3_EEEEEptEv
Ltmp88:
	movq	%rax, %rdi
	callq	__ZNSt3__111__list_nodeIiPvE9__as_linkEv
Ltmp89:
	movq	%rax, -120(%rbp)        ## 8-byte Spill
	jmp	LBB81_2
LBB81_2:
	leaq	-64(%rbp), %rdi
	callq	__ZNKSt3__110unique_ptrINS_11__list_nodeIiPvEENS_22__allocator_destructorINS_9allocatorIS3_EEEEEptEv
Ltmp90:
	movq	%rax, %rdi
	callq	__ZNSt3__111__list_nodeIiPvE9__as_linkEv
Ltmp91:
	movq	%rax, -128(%rbp)        ## 8-byte Spill
	jmp	LBB81_3
LBB81_3:
Ltmp92:
	movq	-112(%rbp), %rdi        ## 8-byte Reload
	movq	-120(%rbp), %rsi        ## 8-byte Reload
	movq	-128(%rbp), %rdx        ## 8-byte Reload
	callq	__ZNSt3__14listIiNS_9allocatorIiEEE12__link_nodesEPNS_16__list_node_baseIiPvEES7_S7_
Ltmp93:
	jmp	LBB81_4
LBB81_4:
	movq	-88(%rbp), %rdi         ## 8-byte Reload
	callq	__ZNSt3__110__list_impIiNS_9allocatorIiEEE4__szEv
	movq	(%rax), %rcx
	incq	%rcx
	movq	%rcx, (%rax)
	leaq	-64(%rbp), %rdi
	callq	__ZNSt3__110unique_ptrINS_11__list_nodeIiPvEENS_22__allocator_destructorINS_9allocatorIS3_EEEEE7releaseEv
Ltmp94:
	movq	%rax, %rdi
	callq	__ZNSt3__111__list_nodeIiPvE9__as_linkEv
Ltmp95:
	movq	%rax, -136(%rbp)        ## 8-byte Spill
	jmp	LBB81_5
LBB81_5:
	leaq	-8(%rbp), %rdi
	movq	-136(%rbp), %rsi        ## 8-byte Reload
	callq	__ZNSt3__115__list_iteratorIiPvEC1EPNS_16__list_node_baseIiS1_EE
	leaq	-64(%rbp), %rdi
	callq	__ZNSt3__110unique_ptrINS_11__list_nodeIiPvEENS_22__allocator_destructorINS_9allocatorIS3_EEEEED1Ev
	movq	-8(%rbp), %rax
	addq	$144, %rsp
	popq	%rbp
	retq
LBB81_6:
Ltmp96:
                                        ## kill: def $edx killed $edx killed $rdx
	movq	%rax, -72(%rbp)
	movl	%edx, -76(%rbp)
	leaq	-64(%rbp), %rdi
	callq	__ZNSt3__110unique_ptrINS_11__list_nodeIiPvEENS_22__allocator_destructorINS_9allocatorIS3_EEEEED1Ev
## %bb.7:
	movq	-72(%rbp), %rdi
	callq	__Unwind_Resume
	ud2
Lfunc_end5:
	.cfi_endproc
	.section	__TEXT,__gcc_except_tab
	.p2align	2
GCC_except_table81:
Lexception5:
	.byte	255                     ## @LPStart Encoding = omit
	.byte	255                     ## @TType Encoding = omit
	.byte	1                       ## Call site Encoding = uleb128
	.uleb128 Lcst_end5-Lcst_begin5
Lcst_begin5:
	.uleb128 Lfunc_begin5-Lfunc_begin5 ## >> Call Site 1 <<
	.uleb128 Ltmp86-Lfunc_begin5    ##   Call between Lfunc_begin5 and Ltmp86
	.byte	0                       ##     has no landing pad
	.byte	0                       ##   On action: cleanup
	.uleb128 Ltmp86-Lfunc_begin5    ## >> Call Site 2 <<
	.uleb128 Ltmp95-Ltmp86          ##   Call between Ltmp86 and Ltmp95
	.uleb128 Ltmp96-Lfunc_begin5    ##     jumps to Ltmp96
	.byte	0                       ##   On action: cleanup
	.uleb128 Ltmp95-Lfunc_begin5    ## >> Call Site 3 <<
	.uleb128 Lfunc_end5-Ltmp95      ##   Call between Ltmp95 and Lfunc_end5
	.byte	0                       ##     has no landing pad
	.byte	0                       ##   On action: cleanup
Lcst_end5:
	.p2align	2
                                        ## -- End function
	.section	__TEXT,__text,regular,pure_instructions
	.p2align	4, 0x90         ## -- Begin function _ZNSt3__1L7advanceINS_21__list_const_iteratorIiPvEEEEvRT_NS_15iterator_traitsIS4_E15difference_typeE
__ZNSt3__1L7advanceINS_21__list_const_iteratorIiPvEEEEvRT_NS_15iterator_traitsIS4_E15difference_typeE: ## @_ZNSt3__1L7advanceINS_21__list_const_iteratorIiPvEEEEvRT_NS_15iterator_traitsIS4_E15difference_typeE
	.cfi_startproc
## %bb.0:
	pushq	%rbp
	.cfi_def_cfa_offset 16
	.cfi_offset %rbp, -16
	movq	%rsp, %rbp
	.cfi_def_cfa_register %rbp
	subq	$32, %rsp
	movq	%rdi, -8(%rbp)
	movq	%rsi, -16(%rbp)
	movq	-8(%rbp), %rdi
	movq	-16(%rbp), %rsi
	callq	__ZNSt3__1L9__advanceINS_21__list_const_iteratorIiPvEEEEvRT_NS_15iterator_traitsIS4_E15difference_typeENS_26bidirectional_iterator_tagE
	addq	$32, %rsp
	popq	%rbp
	retq
	.cfi_endproc
                                        ## -- End function
	.p2align	4, 0x90         ## -- Begin function _ZNSt3__14listIiNS_9allocatorIiEEE5beginEv
__ZNSt3__14listIiNS_9allocatorIiEEE5beginEv: ## @_ZNSt3__14listIiNS_9allocatorIiEEE5beginEv
	.cfi_startproc
## %bb.0:
	pushq	%rbp
	.cfi_def_cfa_offset 16
	.cfi_offset %rbp, -16
	movq	%rsp, %rbp
	.cfi_def_cfa_register %rbp
	subq	$16, %rsp
	movq	%rdi, -16(%rbp)
	movq	-16(%rbp), %rax
	movq	%rax, %rdi
	callq	__ZNSt3__110__list_impIiNS_9allocatorIiEEE5beginEv
	movq	%rax, -8(%rbp)
	movq	-8(%rbp), %rax
	addq	$16, %rsp
	popq	%rbp
	retq
	.cfi_endproc
                                        ## -- End function
	.p2align	4, 0x90         ## -- Begin function _ZNSt3__14listIiNS_9allocatorIiEEE3endEv
__ZNSt3__14listIiNS_9allocatorIiEEE3endEv: ## @_ZNSt3__14listIiNS_9allocatorIiEEE3endEv
	.cfi_startproc
## %bb.0:
	pushq	%rbp
	.cfi_def_cfa_offset 16
	.cfi_offset %rbp, -16
	movq	%rsp, %rbp
	.cfi_def_cfa_register %rbp
	subq	$16, %rsp
	movq	%rdi, -16(%rbp)
	movq	-16(%rbp), %rax
	movq	%rax, %rdi
	callq	__ZNSt3__110__list_impIiNS_9allocatorIiEEE3endEv
	movq	%rax, -8(%rbp)
	movq	-8(%rbp), %rax
	addq	$16, %rsp
	popq	%rbp
	retq
	.cfi_endproc
                                        ## -- End function
	.p2align	4, 0x90         ## -- Begin function _ZNSt3__1neERKNS_15__list_iteratorIiPvEES4_
__ZNSt3__1neERKNS_15__list_iteratorIiPvEES4_: ## @_ZNSt3__1neERKNS_15__list_iteratorIiPvEES4_
	.cfi_startproc
## %bb.0:
	pushq	%rbp
	.cfi_def_cfa_offset 16
	.cfi_offset %rbp, -16
	movq	%rsp, %rbp
	.cfi_def_cfa_register %rbp
	subq	$16, %rsp
	movq	%rdi, -8(%rbp)
	movq	%rsi, -16(%rbp)
	movq	-8(%rbp), %rdi
	movq	-16(%rbp), %rsi
	callq	__ZNSt3__1eqERKNS_15__list_iteratorIiPvEES4_
	xorb	$-1, %al
	andb	$1, %al
	movzbl	%al, %eax
	addq	$16, %rsp
	popq	%rbp
	retq
	.cfi_endproc
                                        ## -- End function
	.p2align	4, 0x90         ## -- Begin function _ZNKSt3__115__list_iteratorIiPvEdeEv
__ZNKSt3__115__list_iteratorIiPvEdeEv:  ## @_ZNKSt3__115__list_iteratorIiPvEdeEv
	.cfi_startproc
## %bb.0:
	pushq	%rbp
	.cfi_def_cfa_offset 16
	.cfi_offset %rbp, -16
	movq	%rsp, %rbp
	.cfi_def_cfa_register %rbp
	subq	$16, %rsp
	movq	%rdi, -8(%rbp)
	movq	-8(%rbp), %rax
	movq	(%rax), %rdi
	callq	__ZNSt3__116__list_node_baseIiPvE9__as_nodeEv
	addq	$16, %rax
	addq	$16, %rsp
	popq	%rbp
	retq
	.cfi_endproc
                                        ## -- End function
	.p2align	4, 0x90         ## -- Begin function _ZNSt3__115__list_iteratorIiPvEppEv
__ZNSt3__115__list_iteratorIiPvEppEv:   ## @_ZNSt3__115__list_iteratorIiPvEppEv
	.cfi_startproc
## %bb.0:
	pushq	%rbp
	.cfi_def_cfa_offset 16
	.cfi_offset %rbp, -16
	movq	%rsp, %rbp
	.cfi_def_cfa_register %rbp
	movq	%rdi, -8(%rbp)
	movq	-8(%rbp), %rax
	movq	(%rax), %rcx
	movq	8(%rcx), %rcx
	movq	%rcx, (%rax)
	popq	%rbp
	retq
	.cfi_endproc
                                        ## -- End function
	.globl	__ZNSt3__14listIiNS_9allocatorIiEEED1Ev ## -- Begin function _ZNSt3__14listIiNS_9allocatorIiEEED1Ev
	.weak_def_can_be_hidden	__ZNSt3__14listIiNS_9allocatorIiEEED1Ev
	.p2align	4, 0x90
__ZNSt3__14listIiNS_9allocatorIiEEED1Ev: ## @_ZNSt3__14listIiNS_9allocatorIiEEED1Ev
	.cfi_startproc
## %bb.0:
	pushq	%rbp
	.cfi_def_cfa_offset 16
	.cfi_offset %rbp, -16
	movq	%rsp, %rbp
	.cfi_def_cfa_register %rbp
	subq	$16, %rsp
	movq	%rdi, -8(%rbp)
	movq	-8(%rbp), %rdi
	callq	__ZNSt3__14listIiNS_9allocatorIiEEED2Ev
	addq	$16, %rsp
	popq	%rbp
	retq
	.cfi_endproc
                                        ## -- End function
	.globl	__ZN6PersonC2ERKS_      ## -- Begin function _ZN6PersonC2ERKS_
	.p2align	4, 0x90
__ZN6PersonC2ERKS_:                     ## @_ZN6PersonC2ERKS_
	.cfi_startproc
## %bb.0:
	pushq	%rbp
	.cfi_def_cfa_offset 16
	.cfi_offset %rbp, -16
	movq	%rsp, %rbp
	.cfi_def_cfa_register %rbp
	subq	$48, %rsp
	movq	__ZNSt3__14coutE@GOTPCREL(%rip), %rax
	movq	%rdi, -8(%rbp)
	movq	%rsi, -16(%rbp)
	movq	-8(%rbp), %rcx
	movq	-16(%rbp), %rdx
	movl	(%rdx), %r8d
	movl	%r8d, (%rcx)
	movq	$0, 8(%rcx)
	movq	%rax, %rdi
	leaq	L_.str.10(%rip), %rsi
	movq	%rcx, -24(%rbp)         ## 8-byte Spill
	callq	__ZNSt3__1lsINS_11char_traitsIcEEEERNS_13basic_ostreamIcT_EES6_PKc
	movq	%rax, %rdi
	leaq	__ZNSt3__1L4endlIcNS_11char_traitsIcEEEERNS_13basic_ostreamIT_T0_EES7_(%rip), %rsi
	callq	__ZNSt3__113basic_ostreamIcNS_11char_traitsIcEEElsEPFRS3_S4_E
	movq	-16(%rbp), %rdi
	movq	%rax, -32(%rbp)         ## 8-byte Spill
	callq	__ZNK6Person4getPEv
	movq	%rax, %rdi
	callq	_strlen
	addq	$1, %rax
	movq	%rax, %rdi
	callq	_malloc
	movq	-24(%rbp), %rcx         ## 8-byte Reload
	movq	%rax, 8(%rcx)
	cmpq	$0, 8(%rcx)
	jne	LBB89_2
## %bb.1:
	movq	__ZNSt3__14cerrE@GOTPCREL(%rip), %rdi
	leaq	L_.str.11(%rip), %rsi
	callq	__ZNSt3__1lsINS_11char_traitsIcEEEERNS_13basic_ostreamIcT_EES6_PKc
	leaq	__ZNSt3__1L4endlIcNS_11char_traitsIcEEEERNS_13basic_ostreamIT_T0_EES7_(%rip), %rsi
	movq	%rax, %rdi
	callq	__ZNSt3__113basic_ostreamIcNS_11char_traitsIcEEElsEPFRS3_S4_E
	movl	$1, %edi
	movq	%rax, -40(%rbp)         ## 8-byte Spill
	callq	_exit
LBB89_2:
	movq	-24(%rbp), %rax         ## 8-byte Reload
	movq	8(%rax), %rdi
	movq	-16(%rbp), %rcx
	movq	%rdi, -48(%rbp)         ## 8-byte Spill
	movq	%rcx, %rdi
	callq	__ZNK6Person4getPEv
	movq	-48(%rbp), %rdi         ## 8-byte Reload
	movq	%rax, %rsi
	callq	_strcpy
	addq	$48, %rsp
	popq	%rbp
	retq
	.cfi_endproc
                                        ## -- End function
	.globl	__ZNK6Person4getPEv     ## -- Begin function _ZNK6Person4getPEv
	.weak_definition	__ZNK6Person4getPEv
	.p2align	4, 0x90
__ZNK6Person4getPEv:                    ## @_ZNK6Person4getPEv
	.cfi_startproc
## %bb.0:
	pushq	%rbp
	.cfi_def_cfa_offset 16
	.cfi_offset %rbp, -16
	movq	%rsp, %rbp
	.cfi_def_cfa_register %rbp
	movq	%rdi, -8(%rbp)
	movq	-8(%rbp), %rax
	movq	8(%rax), %rax
	popq	%rbp
	retq
	.cfi_endproc
                                        ## -- End function
	.globl	__ZN6PersonC1ERKS_      ## -- Begin function _ZN6PersonC1ERKS_
	.p2align	4, 0x90
__ZN6PersonC1ERKS_:                     ## @_ZN6PersonC1ERKS_
	.cfi_startproc
## %bb.0:
	pushq	%rbp
	.cfi_def_cfa_offset 16
	.cfi_offset %rbp, -16
	movq	%rsp, %rbp
	.cfi_def_cfa_register %rbp
	subq	$16, %rsp
	movq	%rdi, -8(%rbp)
	movq	%rsi, -16(%rbp)
	movq	-8(%rbp), %rdi
	movq	-16(%rbp), %rsi
	callq	__ZN6PersonC2ERKS_
	addq	$16, %rsp
	popq	%rbp
	retq
	.cfi_endproc
                                        ## -- End function
	.globl	__ZN6PersonC2EOS_       ## -- Begin function _ZN6PersonC2EOS_
	.p2align	4, 0x90
__ZN6PersonC2EOS_:                      ## @_ZN6PersonC2EOS_
Lfunc_begin6:
	.cfi_startproc
	.cfi_personality 155, ___gxx_personality_v0
	.cfi_lsda 16, Lexception6
## %bb.0:
	pushq	%rbp
	.cfi_def_cfa_offset 16
	.cfi_offset %rbp, -16
	movq	%rsp, %rbp
	.cfi_def_cfa_register %rbp
	subq	$80, %rsp
	movq	%rdi, -8(%rbp)
	movq	%rsi, -16(%rbp)
	movq	-8(%rbp), %rax
	movq	%rax, %rcx
	movq	-16(%rbp), %rdi
Ltmp97:
	movq	%rax, -24(%rbp)         ## 8-byte Spill
	movq	%rcx, -32(%rbp)         ## 8-byte Spill
	callq	__ZNK6Person5getIdEv
Ltmp98:
	movl	%eax, -36(%rbp)         ## 4-byte Spill
	jmp	LBB92_1
LBB92_1:
	movq	-24(%rbp), %rax         ## 8-byte Reload
	movl	-36(%rbp), %ecx         ## 4-byte Reload
	movl	%ecx, (%rax)
	movq	-32(%rbp), %rdx         ## 8-byte Reload
	addq	$8, %rdx
	movq	-16(%rbp), %rdi
Ltmp99:
	movq	%rdx, -48(%rbp)         ## 8-byte Spill
	callq	__ZNK6Person4getPEv
Ltmp100:
	movq	%rax, -56(%rbp)         ## 8-byte Spill
	jmp	LBB92_2
LBB92_2:
	movq	-48(%rbp), %rax         ## 8-byte Reload
	movq	-56(%rbp), %rcx         ## 8-byte Reload
	movq	%rcx, (%rax)
Ltmp101:
	movq	__ZNSt3__14coutE@GOTPCREL(%rip), %rdi
	leaq	L_.str.12(%rip), %rsi
	callq	__ZNSt3__1lsINS_11char_traitsIcEEEERNS_13basic_ostreamIcT_EES6_PKc
Ltmp102:
	movq	%rax, -64(%rbp)         ## 8-byte Spill
	jmp	LBB92_3
LBB92_3:
Ltmp103:
	leaq	__ZNSt3__1L4endlIcNS_11char_traitsIcEEEERNS_13basic_ostreamIT_T0_EES7_(%rip), %rsi
	movq	-64(%rbp), %rdi         ## 8-byte Reload
	callq	__ZNSt3__113basic_ostreamIcNS_11char_traitsIcEEElsEPFRS3_S4_E
Ltmp104:
	jmp	LBB92_4
LBB92_4:
	movq	-16(%rbp), %rdi
Ltmp105:
	xorl	%eax, %eax
	movl	%eax, %esi
	callq	__ZN6Person4setPEPc
Ltmp106:
	jmp	LBB92_5
LBB92_5:
	addq	$80, %rsp
	popq	%rbp
	retq
LBB92_6:
Ltmp107:
	movq	%rax, %rdi
	movq	%rdx, -72(%rbp)         ## 8-byte Spill
	callq	___clang_call_terminate
Lfunc_end6:
	.cfi_endproc
	.section	__TEXT,__gcc_except_tab
	.p2align	2
GCC_except_table92:
Lexception6:
	.byte	255                     ## @LPStart Encoding = omit
	.byte	155                     ## @TType Encoding = indirect pcrel sdata4
	.uleb128 Lttbase0-Lttbaseref0
Lttbaseref0:
	.byte	1                       ## Call site Encoding = uleb128
	.uleb128 Lcst_end6-Lcst_begin6
Lcst_begin6:
	.uleb128 Ltmp97-Lfunc_begin6    ## >> Call Site 1 <<
	.uleb128 Ltmp106-Ltmp97         ##   Call between Ltmp97 and Ltmp106
	.uleb128 Ltmp107-Lfunc_begin6   ##     jumps to Ltmp107
	.byte	1                       ##   On action: 1
Lcst_end6:
	.byte	1                       ## >> Action Record 1 <<
                                        ##   Catch TypeInfo 1
	.byte	0                       ##   No further actions
	.p2align	2
                                        ## >> Catch TypeInfos <<
	.long	0                       ## TypeInfo 1
Lttbase0:
	.p2align	2
                                        ## -- End function
	.section	__TEXT,__text,regular,pure_instructions
	.globl	__ZNK6Person5getIdEv    ## -- Begin function _ZNK6Person5getIdEv
	.weak_definition	__ZNK6Person5getIdEv
	.p2align	4, 0x90
__ZNK6Person5getIdEv:                   ## @_ZNK6Person5getIdEv
	.cfi_startproc
## %bb.0:
	pushq	%rbp
	.cfi_def_cfa_offset 16
	.cfi_offset %rbp, -16
	movq	%rsp, %rbp
	.cfi_def_cfa_register %rbp
	movq	%rdi, -8(%rbp)
	movq	-8(%rbp), %rax
	movl	(%rax), %eax
	popq	%rbp
	retq
	.cfi_endproc
                                        ## -- End function
	.private_extern	___clang_call_terminate ## -- Begin function __clang_call_terminate
	.globl	___clang_call_terminate
	.weak_definition	___clang_call_terminate
	.p2align	4, 0x90
___clang_call_terminate:                ## @__clang_call_terminate
## %bb.0:
	pushq	%rax
	callq	___cxa_begin_catch
	movq	%rax, (%rsp)            ## 8-byte Spill
	callq	__ZSt9terminatev
                                        ## -- End function
	.globl	__ZN6Person4setPEPc     ## -- Begin function _ZN6Person4setPEPc
	.weak_definition	__ZN6Person4setPEPc
	.p2align	4, 0x90
__ZN6Person4setPEPc:                    ## @_ZN6Person4setPEPc
	.cfi_startproc
## %bb.0:
	pushq	%rbp
	.cfi_def_cfa_offset 16
	.cfi_offset %rbp, -16
	movq	%rsp, %rbp
	.cfi_def_cfa_register %rbp
	movq	%rdi, -8(%rbp)
	movq	%rsi, -16(%rbp)
	movq	-8(%rbp), %rax
	movq	-16(%rbp), %rcx
	movq	%rcx, 8(%rax)
	popq	%rbp
	retq
	.cfi_endproc
                                        ## -- End function
	.globl	__ZN6PersonC1EOS_       ## -- Begin function _ZN6PersonC1EOS_
	.p2align	4, 0x90
__ZN6PersonC1EOS_:                      ## @_ZN6PersonC1EOS_
	.cfi_startproc
## %bb.0:
	pushq	%rbp
	.cfi_def_cfa_offset 16
	.cfi_offset %rbp, -16
	movq	%rsp, %rbp
	.cfi_def_cfa_register %rbp
	subq	$16, %rsp
	movq	%rdi, -8(%rbp)
	movq	%rsi, -16(%rbp)
	movq	-8(%rbp), %rdi
	movq	-16(%rbp), %rsi
	callq	__ZN6PersonC2EOS_
	addq	$16, %rsp
	popq	%rbp
	retq
	.cfi_endproc
                                        ## -- End function
	.globl	__ZN6PersonC2EPKci      ## -- Begin function _ZN6PersonC2EPKci
	.p2align	4, 0x90
__ZN6PersonC2EPKci:                     ## @_ZN6PersonC2EPKci
	.cfi_startproc
## %bb.0:
	pushq	%rbp
	.cfi_def_cfa_offset 16
	.cfi_offset %rbp, -16
	movq	%rsp, %rbp
	.cfi_def_cfa_register %rbp
	subq	$48, %rsp
	movq	__ZNSt3__14coutE@GOTPCREL(%rip), %rax
	movq	%rdi, -8(%rbp)
	movq	%rsi, -16(%rbp)
	movl	%edx, -20(%rbp)
	movq	-8(%rbp), %rcx
	movl	-20(%rbp), %edx
	movl	%edx, (%rcx)
	movq	$0, 8(%rcx)
	movq	%rax, %rdi
	leaq	L_.str.13(%rip), %rsi
	movq	%rcx, -32(%rbp)         ## 8-byte Spill
	callq	__ZNSt3__1lsINS_11char_traitsIcEEEERNS_13basic_ostreamIcT_EES6_PKc
	movq	%rax, %rdi
	leaq	__ZNSt3__1L4endlIcNS_11char_traitsIcEEEERNS_13basic_ostreamIT_T0_EES7_(%rip), %rsi
	callq	__ZNSt3__113basic_ostreamIcNS_11char_traitsIcEEElsEPFRS3_S4_E
	movq	-16(%rbp), %rdi
	movq	%rax, -40(%rbp)         ## 8-byte Spill
	callq	_strlen
	addq	$1, %rax
	movq	%rax, %rdi
	callq	_malloc
	movq	-32(%rbp), %rcx         ## 8-byte Reload
	movq	%rax, 8(%rcx)
	cmpq	$0, 8(%rcx)
	jne	LBB97_2
## %bb.1:
	movq	__ZNSt3__14cerrE@GOTPCREL(%rip), %rdi
	leaq	L_.str.11(%rip), %rsi
	callq	__ZNSt3__1lsINS_11char_traitsIcEEEERNS_13basic_ostreamIcT_EES6_PKc
	leaq	__ZNSt3__1L4endlIcNS_11char_traitsIcEEEERNS_13basic_ostreamIT_T0_EES7_(%rip), %rsi
	movq	%rax, %rdi
	callq	__ZNSt3__113basic_ostreamIcNS_11char_traitsIcEEElsEPFRS3_S4_E
	movl	$1, %edi
	movq	%rax, -48(%rbp)         ## 8-byte Spill
	callq	_exit
LBB97_2:
	movq	-32(%rbp), %rax         ## 8-byte Reload
	movq	8(%rax), %rdi
	movq	-16(%rbp), %rsi
	callq	_strcpy
	addq	$48, %rsp
	popq	%rbp
	retq
	.cfi_endproc
                                        ## -- End function
	.globl	__ZN6PersonC1EPKci      ## -- Begin function _ZN6PersonC1EPKci
	.p2align	4, 0x90
__ZN6PersonC1EPKci:                     ## @_ZN6PersonC1EPKci
	.cfi_startproc
## %bb.0:
	pushq	%rbp
	.cfi_def_cfa_offset 16
	.cfi_offset %rbp, -16
	movq	%rsp, %rbp
	.cfi_def_cfa_register %rbp
	subq	$32, %rsp
	movq	%rdi, -8(%rbp)
	movq	%rsi, -16(%rbp)
	movl	%edx, -20(%rbp)
	movq	-8(%rbp), %rdi
	movq	-16(%rbp), %rsi
	movl	-20(%rbp), %edx
	callq	__ZN6PersonC2EPKci
	addq	$32, %rsp
	popq	%rbp
	retq
	.cfi_endproc
                                        ## -- End function
	.globl	__ZNK6Person5PrintEv    ## -- Begin function _ZNK6Person5PrintEv
	.p2align	4, 0x90
__ZNK6Person5PrintEv:                   ## @_ZNK6Person5PrintEv
	.cfi_startproc
## %bb.0:
	pushq	%rbp
	.cfi_def_cfa_offset 16
	.cfi_offset %rbp, -16
	movq	%rsp, %rbp
	.cfi_def_cfa_register %rbp
	subq	$16, %rsp
	movq	__ZNSt3__14coutE@GOTPCREL(%rip), %rax
	movq	%rdi, -8(%rbp)
	movq	-8(%rbp), %rcx
	movq	%rax, %rdi
	leaq	L_.str.14(%rip), %rsi
	movq	%rcx, -16(%rbp)         ## 8-byte Spill
	callq	__ZNSt3__1lsINS_11char_traitsIcEEEERNS_13basic_ostreamIcT_EES6_PKc
	movq	-16(%rbp), %rcx         ## 8-byte Reload
	movq	8(%rcx), %rsi
	movq	%rax, %rdi
	callq	__ZNSt3__1lsINS_11char_traitsIcEEEERNS_13basic_ostreamIcT_EES6_PKc
	movq	%rax, %rdi
	leaq	L_.str.15(%rip), %rsi
	callq	__ZNSt3__1lsINS_11char_traitsIcEEEERNS_13basic_ostreamIcT_EES6_PKc
	movq	-16(%rbp), %rcx         ## 8-byte Reload
	movl	(%rcx), %esi
	movq	%rax, %rdi
	callq	__ZNSt3__113basic_ostreamIcNS_11char_traitsIcEEElsEi
	movq	%rax, %rdi
	leaq	__ZNSt3__1L4endlIcNS_11char_traitsIcEEEERNS_13basic_ostreamIT_T0_EES7_(%rip), %rsi
	callq	__ZNSt3__113basic_ostreamIcNS_11char_traitsIcEEElsEPFRS3_S4_E
	addq	$16, %rsp
	popq	%rbp
	retq
	.cfi_endproc
                                        ## -- End function
	.globl	__ZN6PersonaSERKS_      ## -- Begin function _ZN6PersonaSERKS_
	.p2align	4, 0x90
__ZN6PersonaSERKS_:                     ## @_ZN6PersonaSERKS_
	.cfi_startproc
## %bb.0:
	pushq	%rbp
	.cfi_def_cfa_offset 16
	.cfi_offset %rbp, -16
	movq	%rsp, %rbp
	.cfi_def_cfa_register %rbp
	subq	$48, %rsp
	movq	__ZNSt3__14coutE@GOTPCREL(%rip), %rax
	movq	%rdi, -8(%rbp)
	movq	%rsi, -16(%rbp)
	movq	-8(%rbp), %rcx
	movq	%rax, %rdi
	leaq	L_.str.16(%rip), %rsi
	movq	%rcx, -24(%rbp)         ## 8-byte Spill
	callq	__ZNSt3__1lsINS_11char_traitsIcEEEERNS_13basic_ostreamIcT_EES6_PKc
	movq	%rax, %rdi
	leaq	__ZNSt3__1L4endlIcNS_11char_traitsIcEEEERNS_13basic_ostreamIT_T0_EES7_(%rip), %rsi
	callq	__ZNSt3__113basic_ostreamIcNS_11char_traitsIcEEElsEPFRS3_S4_E
	movq	-24(%rbp), %rcx         ## 8-byte Reload
	cmpq	-16(%rbp), %rcx
	je	LBB100_4
## %bb.1:
	movq	-16(%rbp), %rdi
	callq	__ZNK6Person5getIdEv
	movq	-24(%rbp), %rcx         ## 8-byte Reload
	movl	%eax, (%rcx)
	movq	8(%rcx), %rdi
	callq	_free
	movq	-16(%rbp), %rdi
	callq	__ZNK6Person4getPEv
	movq	%rax, %rdi
	callq	_strlen
	addq	$1, %rax
	movq	%rax, %rdi
	callq	_malloc
	movq	-24(%rbp), %rcx         ## 8-byte Reload
	movq	%rax, 8(%rcx)
	cmpq	$0, 8(%rcx)
	jne	LBB100_3
## %bb.2:
	movq	__ZNSt3__14cerrE@GOTPCREL(%rip), %rdi
	leaq	L_.str.11(%rip), %rsi
	callq	__ZNSt3__1lsINS_11char_traitsIcEEEERNS_13basic_ostreamIcT_EES6_PKc
	leaq	__ZNSt3__1L4endlIcNS_11char_traitsIcEEEERNS_13basic_ostreamIT_T0_EES7_(%rip), %rsi
	movq	%rax, %rdi
	callq	__ZNSt3__113basic_ostreamIcNS_11char_traitsIcEEElsEPFRS3_S4_E
	movl	$1, %edi
	movq	%rax, -32(%rbp)         ## 8-byte Spill
	callq	_exit
LBB100_3:
	movq	-24(%rbp), %rax         ## 8-byte Reload
	movq	8(%rax), %rdi
	movq	-16(%rbp), %rcx
	movq	%rdi, -40(%rbp)         ## 8-byte Spill
	movq	%rcx, %rdi
	callq	__ZNK6Person4getPEv
	movq	-40(%rbp), %rdi         ## 8-byte Reload
	movq	%rax, %rsi
	callq	_strcpy
LBB100_4:
	movq	-24(%rbp), %rax         ## 8-byte Reload
	addq	$48, %rsp
	popq	%rbp
	retq
	.cfi_endproc
                                        ## -- End function
	.globl	__ZN6PersonaSEOS_       ## -- Begin function _ZN6PersonaSEOS_
	.p2align	4, 0x90
__ZN6PersonaSEOS_:                      ## @_ZN6PersonaSEOS_
Lfunc_begin7:
	.cfi_startproc
	.cfi_personality 155, ___gxx_personality_v0
	.cfi_lsda 16, Lexception7
## %bb.0:
	pushq	%rbp
	.cfi_def_cfa_offset 16
	.cfi_offset %rbp, -16
	movq	%rsp, %rbp
	.cfi_def_cfa_register %rbp
	subq	$64, %rsp
	movq	%rdi, -8(%rbp)
	movq	%rsi, -16(%rbp)
	movq	-8(%rbp), %rax
Ltmp108:
	movq	__ZNSt3__14coutE@GOTPCREL(%rip), %rdi
	leaq	L_.str.17(%rip), %rsi
	movq	%rax, -24(%rbp)         ## 8-byte Spill
	callq	__ZNSt3__1lsINS_11char_traitsIcEEEERNS_13basic_ostreamIcT_EES6_PKc
Ltmp109:
	movq	%rax, -32(%rbp)         ## 8-byte Spill
	jmp	LBB101_1
LBB101_1:
Ltmp110:
	leaq	__ZNSt3__1L4endlIcNS_11char_traitsIcEEEERNS_13basic_ostreamIT_T0_EES7_(%rip), %rsi
	movq	-32(%rbp), %rdi         ## 8-byte Reload
	callq	__ZNSt3__113basic_ostreamIcNS_11char_traitsIcEEElsEPFRS3_S4_E
Ltmp111:
	jmp	LBB101_2
LBB101_2:
	movq	-24(%rbp), %rax         ## 8-byte Reload
	cmpq	-16(%rbp), %rax
	je	LBB101_9
## %bb.3:
	movq	-24(%rbp), %rax         ## 8-byte Reload
	movq	8(%rax), %rdi
Ltmp112:
	callq	_free
Ltmp113:
	jmp	LBB101_4
LBB101_4:
	movq	-16(%rbp), %rdi
Ltmp114:
	callq	__ZNK6Person4getPEv
Ltmp115:
	movq	%rax, -40(%rbp)         ## 8-byte Spill
	jmp	LBB101_5
LBB101_5:
	movq	-24(%rbp), %rax         ## 8-byte Reload
	movq	-40(%rbp), %rcx         ## 8-byte Reload
	movq	%rcx, 8(%rax)
	movq	-16(%rbp), %rdi
Ltmp116:
	callq	__ZNK6Person5getIdEv
Ltmp117:
	movl	%eax, -44(%rbp)         ## 4-byte Spill
	jmp	LBB101_6
LBB101_6:
	movq	-24(%rbp), %rax         ## 8-byte Reload
	movl	-44(%rbp), %ecx         ## 4-byte Reload
	movl	%ecx, (%rax)
	movq	-16(%rbp), %rdi
Ltmp118:
	xorl	%esi, %esi
	callq	__ZN6Person5setIdEi
Ltmp119:
	jmp	LBB101_7
LBB101_7:
	movq	-16(%rbp), %rdi
Ltmp120:
	xorl	%eax, %eax
	movl	%eax, %esi
	callq	__ZN6Person4setPEPc
Ltmp121:
	jmp	LBB101_8
LBB101_8:
	jmp	LBB101_9
LBB101_9:
	movq	-24(%rbp), %rax         ## 8-byte Reload
	addq	$64, %rsp
	popq	%rbp
	retq
LBB101_10:
Ltmp122:
	movq	%rax, %rdi
	movq	%rdx, -56(%rbp)         ## 8-byte Spill
	callq	___clang_call_terminate
Lfunc_end7:
	.cfi_endproc
	.section	__TEXT,__gcc_except_tab
	.p2align	2
GCC_except_table101:
Lexception7:
	.byte	255                     ## @LPStart Encoding = omit
	.byte	155                     ## @TType Encoding = indirect pcrel sdata4
	.uleb128 Lttbase1-Lttbaseref1
Lttbaseref1:
	.byte	1                       ## Call site Encoding = uleb128
	.uleb128 Lcst_end7-Lcst_begin7
Lcst_begin7:
	.uleb128 Ltmp108-Lfunc_begin7   ## >> Call Site 1 <<
	.uleb128 Ltmp121-Ltmp108        ##   Call between Ltmp108 and Ltmp121
	.uleb128 Ltmp122-Lfunc_begin7   ##     jumps to Ltmp122
	.byte	1                       ##   On action: 1
Lcst_end7:
	.byte	1                       ## >> Action Record 1 <<
                                        ##   Catch TypeInfo 1
	.byte	0                       ##   No further actions
	.p2align	2
                                        ## >> Catch TypeInfos <<
	.long	0                       ## TypeInfo 1
Lttbase1:
	.p2align	2
                                        ## -- End function
	.section	__TEXT,__text,regular,pure_instructions
	.globl	__ZN6Person5setIdEi     ## -- Begin function _ZN6Person5setIdEi
	.weak_definition	__ZN6Person5setIdEi
	.p2align	4, 0x90
__ZN6Person5setIdEi:                    ## @_ZN6Person5setIdEi
	.cfi_startproc
## %bb.0:
	pushq	%rbp
	.cfi_def_cfa_offset 16
	.cfi_offset %rbp, -16
	movq	%rsp, %rbp
	.cfi_def_cfa_register %rbp
	movq	%rdi, -8(%rbp)
	movl	%esi, -12(%rbp)
	movq	-8(%rbp), %rax
	movl	-12(%rbp), %ecx
	movl	%ecx, (%rax)
	popq	%rbp
	retq
	.cfi_endproc
                                        ## -- End function
	.globl	__ZN6PersonD2Ev         ## -- Begin function _ZN6PersonD2Ev
	.p2align	4, 0x90
__ZN6PersonD2Ev:                        ## @_ZN6PersonD2Ev
Lfunc_begin8:
	.cfi_startproc
	.cfi_personality 155, ___gxx_personality_v0
	.cfi_lsda 16, Lexception8
## %bb.0:
	pushq	%rbp
	.cfi_def_cfa_offset 16
	.cfi_offset %rbp, -16
	movq	%rsp, %rbp
	.cfi_def_cfa_register %rbp
	subq	$32, %rsp
	movq	%rdi, -8(%rbp)
	movq	-8(%rbp), %rax
Ltmp123:
	movq	__ZNSt3__14coutE@GOTPCREL(%rip), %rdi
	leaq	L_.str.18(%rip), %rsi
	movq	%rax, -16(%rbp)         ## 8-byte Spill
	callq	__ZNSt3__1lsINS_11char_traitsIcEEEERNS_13basic_ostreamIcT_EES6_PKc
Ltmp124:
	movq	%rax, -24(%rbp)         ## 8-byte Spill
	jmp	LBB103_1
LBB103_1:
Ltmp125:
	leaq	__ZNSt3__1L4endlIcNS_11char_traitsIcEEEERNS_13basic_ostreamIT_T0_EES7_(%rip), %rsi
	movq	-24(%rbp), %rdi         ## 8-byte Reload
	callq	__ZNSt3__113basic_ostreamIcNS_11char_traitsIcEEElsEPFRS3_S4_E
Ltmp126:
	jmp	LBB103_2
LBB103_2:
	movq	-16(%rbp), %rax         ## 8-byte Reload
	cmpq	$0, 8(%rax)
	je	LBB103_5
## %bb.3:
	movq	-16(%rbp), %rax         ## 8-byte Reload
	movq	8(%rax), %rdi
Ltmp127:
	callq	_free
Ltmp128:
	jmp	LBB103_4
LBB103_4:
	jmp	LBB103_5
LBB103_5:
	addq	$32, %rsp
	popq	%rbp
	retq
LBB103_6:
Ltmp129:
	movq	%rax, %rdi
	movq	%rdx, -32(%rbp)         ## 8-byte Spill
	callq	___clang_call_terminate
Lfunc_end8:
	.cfi_endproc
	.section	__TEXT,__gcc_except_tab
	.p2align	2
GCC_except_table103:
Lexception8:
	.byte	255                     ## @LPStart Encoding = omit
	.byte	155                     ## @TType Encoding = indirect pcrel sdata4
	.uleb128 Lttbase2-Lttbaseref2
Lttbaseref2:
	.byte	1                       ## Call site Encoding = uleb128
	.uleb128 Lcst_end8-Lcst_begin8
Lcst_begin8:
	.uleb128 Ltmp123-Lfunc_begin8   ## >> Call Site 1 <<
	.uleb128 Ltmp128-Ltmp123        ##   Call between Ltmp123 and Ltmp128
	.uleb128 Ltmp129-Lfunc_begin8   ##     jumps to Ltmp129
	.byte	1                       ##   On action: 1
Lcst_end8:
	.byte	1                       ## >> Action Record 1 <<
                                        ##   Catch TypeInfo 1
	.byte	0                       ##   No further actions
	.p2align	2
                                        ## >> Catch TypeInfos <<
	.long	0                       ## TypeInfo 1
Lttbase2:
	.p2align	2
                                        ## -- End function
	.section	__TEXT,__text,regular,pure_instructions
	.globl	__ZN6PersonD1Ev         ## -- Begin function _ZN6PersonD1Ev
	.p2align	4, 0x90
__ZN6PersonD1Ev:                        ## @_ZN6PersonD1Ev
	.cfi_startproc
## %bb.0:
	pushq	%rbp
	.cfi_def_cfa_offset 16
	.cfi_offset %rbp, -16
	movq	%rsp, %rbp
	.cfi_def_cfa_register %rbp
	subq	$16, %rsp
	movq	%rdi, -8(%rbp)
	movq	-8(%rbp), %rdi
	callq	__ZN6PersonD2Ev
	addq	$16, %rsp
	popq	%rbp
	retq
	.cfi_endproc
                                        ## -- End function
	.globl	__ZNK6PersoncvNSt3__112basic_stringIcNS0_11char_traitsIcEENS0_9allocatorIcEEEEEv ## -- Begin function _ZNK6PersoncvNSt3__112basic_stringIcNS0_11char_traitsIcEENS0_9allocatorIcEEEEEv
	.p2align	4, 0x90
__ZNK6PersoncvNSt3__112basic_stringIcNS0_11char_traitsIcEENS0_9allocatorIcEEEEEv: ## @_ZNK6PersoncvNSt3__112basic_stringIcNS0_11char_traitsIcEENS0_9allocatorIcEEEEEv
	.cfi_startproc
## %bb.0:
	pushq	%rbp
	.cfi_def_cfa_offset 16
	.cfi_offset %rbp, -16
	movq	%rsp, %rbp
	.cfi_def_cfa_register %rbp
	subq	$32, %rsp
	movq	%rdi, %rax
	movq	%rdi, %rcx
	movq	%rcx, -8(%rbp)
	movq	%rsi, -16(%rbp)
	movq	-16(%rbp), %rcx
	movq	8(%rcx), %rsi
	movq	%rax, -24(%rbp)         ## 8-byte Spill
	callq	__ZNSt3__112basic_stringIcNS_11char_traitsIcEENS_9allocatorIcEEEC1IDnEEPKc
	movq	-24(%rbp), %rax         ## 8-byte Reload
	addq	$32, %rsp
	popq	%rbp
	retq
	.cfi_endproc
                                        ## -- End function
	.globl	__ZlsRNSt3__113basic_ostreamIcNS_11char_traitsIcEEEERK6Person ## -- Begin function _ZlsRNSt3__113basic_ostreamIcNS_11char_traitsIcEEEERK6Person
	.p2align	4, 0x90
__ZlsRNSt3__113basic_ostreamIcNS_11char_traitsIcEEEERK6Person: ## @_ZlsRNSt3__113basic_ostreamIcNS_11char_traitsIcEEEERK6Person
Lfunc_begin9:
	.cfi_startproc
	.cfi_personality 155, ___gxx_personality_v0
	.cfi_lsda 16, Lexception9
## %bb.0:
	pushq	%rbp
	.cfi_def_cfa_offset 16
	.cfi_offset %rbp, -16
	movq	%rsp, %rbp
	.cfi_def_cfa_register %rbp
	subq	$96, %rsp
	movq	%rdi, -8(%rbp)
	movq	%rsi, -16(%rbp)
	movq	-8(%rbp), %rdi
	leaq	L_.str.19(%rip), %rsi
	callq	__ZNSt3__1lsINS_11char_traitsIcEEEERNS_13basic_ostreamIcT_EES6_PKc
	movq	-16(%rbp), %rsi
	leaq	-40(%rbp), %rcx
	movq	%rcx, %rdi
	movq	%rax, -64(%rbp)         ## 8-byte Spill
	movq	%rcx, -72(%rbp)         ## 8-byte Spill
	callq	__ZNK6PersoncvNSt3__112basic_stringIcNS0_11char_traitsIcEENS0_9allocatorIcEEEEEv
Ltmp130:
	movq	-64(%rbp), %rdi         ## 8-byte Reload
	movq	-72(%rbp), %rsi         ## 8-byte Reload
	callq	__ZNSt3__1lsIcNS_11char_traitsIcEENS_9allocatorIcEEEERNS_13basic_ostreamIT_T0_EES9_RKNS_12basic_stringIS6_S7_T1_EE
Ltmp131:
	movq	%rax, -80(%rbp)         ## 8-byte Spill
	jmp	LBB106_1
LBB106_1:
Ltmp132:
	leaq	__ZNSt3__1L4endlIcNS_11char_traitsIcEEEERNS_13basic_ostreamIT_T0_EES7_(%rip), %rsi
	movq	-80(%rbp), %rdi         ## 8-byte Reload
	callq	__ZNSt3__113basic_ostreamIcNS_11char_traitsIcEEElsEPFRS3_S4_E
Ltmp133:
	movq	%rax, -88(%rbp)         ## 8-byte Spill
	jmp	LBB106_2
LBB106_2:
	leaq	-40(%rbp), %rdi
	callq	__ZNSt3__112basic_stringIcNS_11char_traitsIcEENS_9allocatorIcEEED1Ev
	movq	-88(%rbp), %rax         ## 8-byte Reload
	addq	$96, %rsp
	popq	%rbp
	retq
LBB106_3:
Ltmp134:
                                        ## kill: def $edx killed $edx killed $rdx
	movq	%rax, -48(%rbp)
	movl	%edx, -52(%rbp)
	leaq	-40(%rbp), %rdi
	callq	__ZNSt3__112basic_stringIcNS_11char_traitsIcEENS_9allocatorIcEEED1Ev
## %bb.4:
	movq	-48(%rbp), %rdi
	callq	__Unwind_Resume
	ud2
Lfunc_end9:
	.cfi_endproc
	.section	__TEXT,__gcc_except_tab
	.p2align	2
GCC_except_table106:
Lexception9:
	.byte	255                     ## @LPStart Encoding = omit
	.byte	255                     ## @TType Encoding = omit
	.byte	1                       ## Call site Encoding = uleb128
	.uleb128 Lcst_end9-Lcst_begin9
Lcst_begin9:
	.uleb128 Lfunc_begin9-Lfunc_begin9 ## >> Call Site 1 <<
	.uleb128 Ltmp130-Lfunc_begin9   ##   Call between Lfunc_begin9 and Ltmp130
	.byte	0                       ##     has no landing pad
	.byte	0                       ##   On action: cleanup
	.uleb128 Ltmp130-Lfunc_begin9   ## >> Call Site 2 <<
	.uleb128 Ltmp133-Ltmp130        ##   Call between Ltmp130 and Ltmp133
	.uleb128 Ltmp134-Lfunc_begin9   ##     jumps to Ltmp134
	.byte	0                       ##   On action: cleanup
	.uleb128 Ltmp133-Lfunc_begin9   ## >> Call Site 3 <<
	.uleb128 Lfunc_end9-Ltmp133     ##   Call between Ltmp133 and Lfunc_end9
	.byte	0                       ##     has no landing pad
	.byte	0                       ##   On action: cleanup
Lcst_end9:
	.p2align	2
                                        ## -- End function
	.section	__TEXT,__text,regular,pure_instructions
	.globl	__ZNK6PersonplERKS_     ## -- Begin function _ZNK6PersonplERKS_
	.p2align	4, 0x90
__ZNK6PersonplERKS_:                    ## @_ZNK6PersonplERKS_
Lfunc_begin10:
	.cfi_startproc
	.cfi_personality 155, ___gxx_personality_v0
	.cfi_lsda 16, Lexception10
## %bb.0:
	pushq	%rbp
	.cfi_def_cfa_offset 16
	.cfi_offset %rbp, -16
	movq	%rsp, %rbp
	.cfi_def_cfa_register %rbp
	subq	$176, %rsp
	movq	%rdi, %rax
	movq	%rdi, %rcx
	movq	%rcx, -8(%rbp)
	movq	%rsi, -16(%rbp)
	movq	%rdx, -24(%rbp)
	movq	-16(%rbp), %rcx
	cmpq	-24(%rbp), %rcx
	movq	%rdi, -144(%rbp)        ## 8-byte Spill
	movq	%rax, -152(%rbp)        ## 8-byte Spill
	movq	%rcx, -160(%rbp)        ## 8-byte Spill
	jne	LBB107_2
## %bb.1:
	movq	-144(%rbp), %rdi        ## 8-byte Reload
	movq	-160(%rbp), %rsi        ## 8-byte Reload
	callq	__ZN6PersonC1ERKS_
	jmp	LBB107_15
LBB107_2:
	leaq	-96(%rbp), %rax
	movq	%rax, %rdi
	movq	-160(%rbp), %rsi        ## 8-byte Reload
	movq	%rax, -168(%rbp)        ## 8-byte Spill
	callq	__ZNK6PersoncvNSt3__112basic_stringIcNS0_11char_traitsIcEENS0_9allocatorIcEEEEEv
Ltmp135:
	leaq	L_.str.20(%rip), %rdx
	leaq	-72(%rbp), %rdi
	movq	-168(%rbp), %rsi        ## 8-byte Reload
	callq	__ZNSt3__1plIcNS_11char_traitsIcEENS_9allocatorIcEEEENS_12basic_stringIT_T0_T1_EEOS9_PKS6_
Ltmp136:
	jmp	LBB107_3
LBB107_3:
	movq	-24(%rbp), %rdi
Ltmp138:
	callq	__ZNK6Person4getPEv
Ltmp139:
	movq	%rax, -176(%rbp)        ## 8-byte Spill
	jmp	LBB107_4
LBB107_4:
Ltmp140:
	leaq	-136(%rbp), %rdi
	movq	-176(%rbp), %rsi        ## 8-byte Reload
	callq	__ZNSt3__112basic_stringIcNS_11char_traitsIcEENS_9allocatorIcEEEC1IDnEEPKc
Ltmp141:
	jmp	LBB107_5
LBB107_5:
Ltmp143:
	leaq	-48(%rbp), %rdi
	leaq	-72(%rbp), %rsi
	leaq	-136(%rbp), %rdx
	callq	__ZNSt3__1plIcNS_11char_traitsIcEENS_9allocatorIcEEEENS_12basic_stringIT_T0_T1_EEOS9_SA_
Ltmp144:
	jmp	LBB107_6
LBB107_6:
	leaq	-48(%rbp), %rdi
	callq	__ZNKSt3__112basic_stringIcNS_11char_traitsIcEENS_9allocatorIcEEE5c_strEv
Ltmp146:
	movl	$1, %edx
	movq	-144(%rbp), %rdi        ## 8-byte Reload
	movq	%rax, %rsi
	callq	__ZN6PersonC1EPKci
Ltmp147:
	jmp	LBB107_7
LBB107_7:
	leaq	-48(%rbp), %rdi
	callq	__ZNSt3__112basic_stringIcNS_11char_traitsIcEENS_9allocatorIcEEED1Ev
	leaq	-136(%rbp), %rdi
	callq	__ZNSt3__112basic_stringIcNS_11char_traitsIcEENS_9allocatorIcEEED1Ev
	leaq	-72(%rbp), %rdi
	callq	__ZNSt3__112basic_stringIcNS_11char_traitsIcEENS_9allocatorIcEEED1Ev
	leaq	-96(%rbp), %rdi
	callq	__ZNSt3__112basic_stringIcNS_11char_traitsIcEENS_9allocatorIcEEED1Ev
	jmp	LBB107_15
LBB107_8:
Ltmp137:
                                        ## kill: def $edx killed $edx killed $rdx
	movq	%rax, -104(%rbp)
	movl	%edx, -108(%rbp)
	jmp	LBB107_14
LBB107_9:
Ltmp142:
                                        ## kill: def $edx killed $edx killed $rdx
	movq	%rax, -104(%rbp)
	movl	%edx, -108(%rbp)
	jmp	LBB107_13
LBB107_10:
Ltmp145:
                                        ## kill: def $edx killed $edx killed $rdx
	movq	%rax, -104(%rbp)
	movl	%edx, -108(%rbp)
	jmp	LBB107_12
LBB107_11:
Ltmp148:
                                        ## kill: def $edx killed $edx killed $rdx
	movq	%rax, -104(%rbp)
	movl	%edx, -108(%rbp)
	leaq	-48(%rbp), %rdi
	callq	__ZNSt3__112basic_stringIcNS_11char_traitsIcEENS_9allocatorIcEEED1Ev
LBB107_12:
	leaq	-136(%rbp), %rdi
	callq	__ZNSt3__112basic_stringIcNS_11char_traitsIcEENS_9allocatorIcEEED1Ev
LBB107_13:
	leaq	-72(%rbp), %rdi
	callq	__ZNSt3__112basic_stringIcNS_11char_traitsIcEENS_9allocatorIcEEED1Ev
LBB107_14:
	leaq	-96(%rbp), %rdi
	callq	__ZNSt3__112basic_stringIcNS_11char_traitsIcEENS_9allocatorIcEEED1Ev
	jmp	LBB107_16
LBB107_15:
	movq	-152(%rbp), %rax        ## 8-byte Reload
	addq	$176, %rsp
	popq	%rbp
	retq
LBB107_16:
	movq	-104(%rbp), %rdi
	callq	__Unwind_Resume
	ud2
Lfunc_end10:
	.cfi_endproc
	.section	__TEXT,__gcc_except_tab
	.p2align	2
GCC_except_table107:
Lexception10:
	.byte	255                     ## @LPStart Encoding = omit
	.byte	255                     ## @TType Encoding = omit
	.byte	1                       ## Call site Encoding = uleb128
	.uleb128 Lcst_end10-Lcst_begin10
Lcst_begin10:
	.uleb128 Lfunc_begin10-Lfunc_begin10 ## >> Call Site 1 <<
	.uleb128 Ltmp135-Lfunc_begin10  ##   Call between Lfunc_begin10 and Ltmp135
	.byte	0                       ##     has no landing pad
	.byte	0                       ##   On action: cleanup
	.uleb128 Ltmp135-Lfunc_begin10  ## >> Call Site 2 <<
	.uleb128 Ltmp136-Ltmp135        ##   Call between Ltmp135 and Ltmp136
	.uleb128 Ltmp137-Lfunc_begin10  ##     jumps to Ltmp137
	.byte	0                       ##   On action: cleanup
	.uleb128 Ltmp138-Lfunc_begin10  ## >> Call Site 3 <<
	.uleb128 Ltmp141-Ltmp138        ##   Call between Ltmp138 and Ltmp141
	.uleb128 Ltmp142-Lfunc_begin10  ##     jumps to Ltmp142
	.byte	0                       ##   On action: cleanup
	.uleb128 Ltmp143-Lfunc_begin10  ## >> Call Site 4 <<
	.uleb128 Ltmp144-Ltmp143        ##   Call between Ltmp143 and Ltmp144
	.uleb128 Ltmp145-Lfunc_begin10  ##     jumps to Ltmp145
	.byte	0                       ##   On action: cleanup
	.uleb128 Ltmp146-Lfunc_begin10  ## >> Call Site 5 <<
	.uleb128 Ltmp147-Ltmp146        ##   Call between Ltmp146 and Ltmp147
	.uleb128 Ltmp148-Lfunc_begin10  ##     jumps to Ltmp148
	.byte	0                       ##   On action: cleanup
	.uleb128 Ltmp147-Lfunc_begin10  ## >> Call Site 6 <<
	.uleb128 Lfunc_end10-Ltmp147    ##   Call between Ltmp147 and Lfunc_end10
	.byte	0                       ##     has no landing pad
	.byte	0                       ##   On action: cleanup
Lcst_end10:
	.p2align	2
                                        ## -- End function
	.section	__TEXT,__text,regular,pure_instructions
	.p2align	4, 0x90         ## -- Begin function _ZNKSt3__112basic_stringIcNS_11char_traitsIcEENS_9allocatorIcEEE5c_strEv
__ZNKSt3__112basic_stringIcNS_11char_traitsIcEENS_9allocatorIcEEE5c_strEv: ## @_ZNKSt3__112basic_stringIcNS_11char_traitsIcEENS_9allocatorIcEEE5c_strEv
	.cfi_startproc
## %bb.0:
	pushq	%rbp
	.cfi_def_cfa_offset 16
	.cfi_offset %rbp, -16
	movq	%rsp, %rbp
	.cfi_def_cfa_register %rbp
	subq	$16, %rsp
	movq	%rdi, -8(%rbp)
	movq	-8(%rbp), %rdi
	callq	__ZNKSt3__112basic_stringIcNS_11char_traitsIcEENS_9allocatorIcEEE4dataEv
	addq	$16, %rsp
	popq	%rbp
	retq
	.cfi_endproc
                                        ## -- End function
	.globl	__Z12PrintP_Wrong6Person ## -- Begin function _Z12PrintP_Wrong6Person
	.p2align	4, 0x90
__Z12PrintP_Wrong6Person:               ## @_Z12PrintP_Wrong6Person
	.cfi_startproc
## %bb.0:
	pushq	%rbp
	.cfi_def_cfa_offset 16
	.cfi_offset %rbp, -16
	movq	%rsp, %rbp
	.cfi_def_cfa_register %rbp
	subq	$16, %rsp
	movq	__ZNSt3__14coutE@GOTPCREL(%rip), %rax
	movq	%rdi, -8(%rbp)          ## 8-byte Spill
	movq	%rax, %rdi
	leaq	L_.str.21(%rip), %rsi
	callq	__ZNSt3__1lsINS_11char_traitsIcEEEERNS_13basic_ostreamIcT_EES6_PKc
	movq	%rax, %rdi
	leaq	__ZNSt3__1L4endlIcNS_11char_traitsIcEEEERNS_13basic_ostreamIT_T0_EES7_(%rip), %rsi
	callq	__ZNSt3__113basic_ostreamIcNS_11char_traitsIcEEElsEPFRS3_S4_E
	movq	-8(%rbp), %rdi          ## 8-byte Reload
	movq	%rax, -16(%rbp)         ## 8-byte Spill
	callq	__ZNK6Person5PrintEv
	callq	_getchar
	addq	$16, %rsp
	popq	%rbp
	retq
	.cfi_endproc
                                        ## -- End function
	.globl	__Z6PrintPRK6Person     ## -- Begin function _Z6PrintPRK6Person
	.p2align	4, 0x90
__Z6PrintPRK6Person:                    ## @_Z6PrintPRK6Person
	.cfi_startproc
## %bb.0:
	pushq	%rbp
	.cfi_def_cfa_offset 16
	.cfi_offset %rbp, -16
	movq	%rsp, %rbp
	.cfi_def_cfa_register %rbp
	subq	$16, %rsp
	movq	__ZNSt3__14coutE@GOTPCREL(%rip), %rax
	movq	%rdi, -8(%rbp)
	movq	%rax, %rdi
	leaq	L_.str.21(%rip), %rsi
	callq	__ZNSt3__1lsINS_11char_traitsIcEEEERNS_13basic_ostreamIcT_EES6_PKc
	movq	%rax, %rdi
	leaq	__ZNSt3__1L4endlIcNS_11char_traitsIcEEEERNS_13basic_ostreamIT_T0_EES7_(%rip), %rsi
	callq	__ZNSt3__113basic_ostreamIcNS_11char_traitsIcEEElsEPFRS3_S4_E
	movq	-8(%rbp), %rdi
	movq	%rax, -16(%rbp)         ## 8-byte Spill
	callq	__ZNK6Person5PrintEv
	callq	_getchar
	addq	$16, %rsp
	popq	%rbp
	retq
	.cfi_endproc
                                        ## -- End function
	.globl	__Z9Simple_B1RKi        ## -- Begin function _Z9Simple_B1RKi
	.p2align	4, 0x90
__Z9Simple_B1RKi:                       ## @_Z9Simple_B1RKi
	.cfi_startproc
## %bb.0:
	pushq	%rbp
	.cfi_def_cfa_offset 16
	.cfi_offset %rbp, -16
	movq	%rsp, %rbp
	.cfi_def_cfa_register %rbp
	movq	%rdi, -16(%rbp)
	movq	-16(%rbp), %rax
	cmpl	$0, (%rax)
	jne	LBB111_2
## %bb.1:
	movl	$1, -4(%rbp)
	jmp	LBB111_3
LBB111_2:
	movl	$2, -4(%rbp)
LBB111_3:
	movl	-4(%rbp), %eax
	popq	%rbp
	retq
	.cfi_endproc
                                        ## -- End function
	.globl	__Z9Simple_B2RKi        ## -- Begin function _Z9Simple_B2RKi
	.p2align	4, 0x90
__Z9Simple_B2RKi:                       ## @_Z9Simple_B2RKi
	.cfi_startproc
## %bb.0:
	pushq	%rbp
	.cfi_def_cfa_offset 16
	.cfi_offset %rbp, -16
	movq	%rsp, %rbp
	.cfi_def_cfa_register %rbp
	movq	%rdi, -16(%rbp)
	movq	-16(%rbp), %rax
	movl	(%rax), %ecx
	movl	%ecx, -20(%rbp)
	movq	-16(%rbp), %rax
	movl	(%rax), %eax
	cltd
	movl	$2, %ecx
	idivl	%ecx
	cmpl	$0, %edx
	jne	LBB112_2
## %bb.1:
	leaq	-20(%rbp), %rax
	movq	%rax, -8(%rbp)
	jmp	LBB112_3
LBB112_2:
	movl	-20(%rbp), %eax
	addl	$1, %eax
	movl	%eax, -20(%rbp)
	leaq	-20(%rbp), %rcx
	movq	%rcx, -8(%rbp)
LBB112_3:
	movq	-8(%rbp), %rax
	popq	%rbp
	retq
	.cfi_endproc
                                        ## -- End function
	.globl	__Z9Simple_B3RKi        ## -- Begin function _Z9Simple_B3RKi
	.p2align	4, 0x90
__Z9Simple_B3RKi:                       ## @_Z9Simple_B3RKi
	.cfi_startproc
## %bb.0:
	pushq	%rbp
	.cfi_def_cfa_offset 16
	.cfi_offset %rbp, -16
	movq	%rsp, %rbp
	.cfi_def_cfa_register %rbp
	subq	$32, %rsp
	movq	%rdi, -16(%rbp)
	movq	-16(%rbp), %rax
	movl	(%rax), %ecx
	movl	%ecx, -20(%rbp)
	movq	-16(%rbp), %rax
	movl	(%rax), %eax
	cltd
	movl	$2, %ecx
	idivl	%ecx
	cmpl	$0, %edx
	jne	LBB113_2
## %bb.1:
	leaq	-20(%rbp), %rdi
	callq	__ZNSt3__1L4moveIRiEEONS_16remove_referenceIT_E4typeEOS3_
	movq	%rax, -8(%rbp)
	jmp	LBB113_3
LBB113_2:
	movl	-20(%rbp), %eax
	addl	$1, %eax
	movl	%eax, -20(%rbp)
	leaq	-20(%rbp), %rdi
	callq	__ZNSt3__1L4moveIRiEEONS_16remove_referenceIT_E4typeEOS3_
	movq	%rax, -8(%rbp)
LBB113_3:
	movq	-8(%rbp), %rax
	addq	$32, %rsp
	popq	%rbp
	retq
	.cfi_endproc
                                        ## -- End function
	.p2align	4, 0x90         ## -- Begin function _ZNSt3__1L4moveIRiEEONS_16remove_referenceIT_E4typeEOS3_
__ZNSt3__1L4moveIRiEEONS_16remove_referenceIT_E4typeEOS3_: ## @_ZNSt3__1L4moveIRiEEONS_16remove_referenceIT_E4typeEOS3_
	.cfi_startproc
## %bb.0:
	pushq	%rbp
	.cfi_def_cfa_offset 16
	.cfi_offset %rbp, -16
	movq	%rsp, %rbp
	.cfi_def_cfa_register %rbp
	movq	%rdi, -8(%rbp)
	movq	-8(%rbp), %rax
	popq	%rbp
	retq
	.cfi_endproc
                                        ## -- End function
	.globl	__Z9Simple_B4RKi        ## -- Begin function _Z9Simple_B4RKi
	.p2align	4, 0x90
__Z9Simple_B4RKi:                       ## @_Z9Simple_B4RKi
	.cfi_startproc
## %bb.0:
	pushq	%rbp
	.cfi_def_cfa_offset 16
	.cfi_offset %rbp, -16
	movq	%rsp, %rbp
	.cfi_def_cfa_register %rbp
	movq	%rdi, -16(%rbp)
	movq	-16(%rbp), %rax
	movl	(%rax), %ecx
	movl	%ecx, -20(%rbp)
	movq	-16(%rbp), %rax
	movl	(%rax), %eax
	cltd
	movl	$2, %ecx
	idivl	%ecx
	cmpl	$0, %edx
	jne	LBB115_2
## %bb.1:
	movl	-20(%rbp), %eax
	movl	%eax, -24(%rbp)
	leaq	-24(%rbp), %rcx
	movq	%rcx, -8(%rbp)
	jmp	LBB115_3
LBB115_2:
	movl	-20(%rbp), %eax
	addl	$1, %eax
	movl	%eax, -20(%rbp)
	movl	%eax, -28(%rbp)
	leaq	-28(%rbp), %rcx
	movq	%rcx, -8(%rbp)
LBB115_3:
	movq	-8(%rbp), %rax
	popq	%rbp
	retq
	.cfi_endproc
                                        ## -- End function
	.globl	__Z2smOKi               ## -- Begin function _Z2smOKi
	.p2align	4, 0x90
__Z2smOKi:                              ## @_Z2smOKi
	.cfi_startproc
## %bb.0:
	pushq	%rbp
	.cfi_def_cfa_offset 16
	.cfi_offset %rbp, -16
	movq	%rsp, %rbp
	.cfi_def_cfa_register %rbp
	movq	%rdi, -16(%rbp)
	movq	-16(%rbp), %rax
	movl	(%rax), %eax
	cltd
	movl	$2, %ecx
	idivl	%ecx
	cmpl	$0, %edx
	jne	LBB116_2
## %bb.1:
	movl	$1, -4(%rbp)
	jmp	LBB116_3
LBB116_2:
	movl	$3, -4(%rbp)
LBB116_3:
	movl	-4(%rbp), %eax
	popq	%rbp
	retq
	.cfi_endproc
                                        ## -- End function
	.globl	__ZN3numppEv            ## -- Begin function _ZN3numppEv
	.p2align	4, 0x90
__ZN3numppEv:                           ## @_ZN3numppEv
	.cfi_startproc
## %bb.0:
	pushq	%rbp
	.cfi_def_cfa_offset 16
	.cfi_offset %rbp, -16
	movq	%rsp, %rbp
	.cfi_def_cfa_register %rbp
	movq	%rdi, -8(%rbp)
	movq	-8(%rbp), %rax
	movl	(%rax), %ecx
	addl	$1, %ecx
	movl	%ecx, (%rax)
	popq	%rbp
	retq
	.cfi_endproc
                                        ## -- End function
	.globl	__ZN3numppEi            ## -- Begin function _ZN3numppEi
	.p2align	4, 0x90
__ZN3numppEi:                           ## @_ZN3numppEi
	.cfi_startproc
## %bb.0:
	pushq	%rbp
	.cfi_def_cfa_offset 16
	.cfi_offset %rbp, -16
	movq	%rsp, %rbp
	.cfi_def_cfa_register %rbp
	movq	%rdi, -16(%rbp)
	movl	%esi, -20(%rbp)
	movq	-16(%rbp), %rax
	movl	(%rax), %ecx
	movl	%ecx, -8(%rbp)
	movl	(%rax), %ecx
	addl	$1, %ecx
	movl	%ecx, (%rax)
	movl	-8(%rbp), %eax
	popq	%rbp
	retq
	.cfi_endproc
                                        ## -- End function
	.globl	__ZN3nummmEv            ## -- Begin function _ZN3nummmEv
	.p2align	4, 0x90
__ZN3nummmEv:                           ## @_ZN3nummmEv
	.cfi_startproc
## %bb.0:
	pushq	%rbp
	.cfi_def_cfa_offset 16
	.cfi_offset %rbp, -16
	movq	%rsp, %rbp
	.cfi_def_cfa_register %rbp
	movq	%rdi, -8(%rbp)
	movq	-8(%rbp), %rax
	movl	(%rax), %ecx
	addl	$-1, %ecx
	movl	%ecx, (%rax)
	popq	%rbp
	retq
	.cfi_endproc
                                        ## -- End function
	.globl	__ZN3nummmEi            ## -- Begin function _ZN3nummmEi
	.p2align	4, 0x90
__ZN3nummmEi:                           ## @_ZN3nummmEi
	.cfi_startproc
## %bb.0:
	pushq	%rbp
	.cfi_def_cfa_offset 16
	.cfi_offset %rbp, -16
	movq	%rsp, %rbp
	.cfi_def_cfa_register %rbp
	movq	%rdi, -16(%rbp)
	movl	%esi, -20(%rbp)
	movq	-16(%rbp), %rax
	movl	(%rax), %ecx
	movl	%ecx, -8(%rbp)
	movl	-8(%rbp), %ecx
	addl	$1, %ecx
	movl	%ecx, -8(%rbp)
	movl	-8(%rbp), %eax
	popq	%rbp
	retq
	.cfi_endproc
                                        ## -- End function
	.globl	__ZNK3numcvNSt3__112basic_stringIcNS0_11char_traitsIcEENS0_9allocatorIcEEEEEv ## -- Begin function _ZNK3numcvNSt3__112basic_stringIcNS0_11char_traitsIcEENS0_9allocatorIcEEEEEv
	.p2align	4, 0x90
__ZNK3numcvNSt3__112basic_stringIcNS0_11char_traitsIcEENS0_9allocatorIcEEEEEv: ## @_ZNK3numcvNSt3__112basic_stringIcNS0_11char_traitsIcEENS0_9allocatorIcEEEEEv
	.cfi_startproc
## %bb.0:
	pushq	%rbp
	.cfi_def_cfa_offset 16
	.cfi_offset %rbp, -16
	movq	%rsp, %rbp
	.cfi_def_cfa_register %rbp
	subq	$32, %rsp
	movq	%rdi, %rax
	movq	%rdi, %rcx
	movq	%rcx, -8(%rbp)
	movq	%rsi, -16(%rbp)
	movq	-16(%rbp), %rcx
	movl	(%rcx), %esi
	movq	%rax, -24(%rbp)         ## 8-byte Spill
	callq	__ZNSt3__19to_stringEi
	movq	-24(%rbp), %rax         ## 8-byte Reload
	addq	$32, %rsp
	popq	%rbp
	retq
	.cfi_endproc
                                        ## -- End function
	.globl	__ZN3numC2ERKi          ## -- Begin function _ZN3numC2ERKi
	.p2align	4, 0x90
__ZN3numC2ERKi:                         ## @_ZN3numC2ERKi
	.cfi_startproc
## %bb.0:
	pushq	%rbp
	.cfi_def_cfa_offset 16
	.cfi_offset %rbp, -16
	movq	%rsp, %rbp
	.cfi_def_cfa_register %rbp
	movq	%rdi, -8(%rbp)
	movq	%rsi, -16(%rbp)
	movq	-8(%rbp), %rax
	movl	$0, (%rax)
	movq	-16(%rbp), %rcx
	movl	(%rcx), %edx
	movl	%edx, (%rax)
	popq	%rbp
	retq
	.cfi_endproc
                                        ## -- End function
	.globl	__ZN3numC1ERKi          ## -- Begin function _ZN3numC1ERKi
	.p2align	4, 0x90
__ZN3numC1ERKi:                         ## @_ZN3numC1ERKi
	.cfi_startproc
## %bb.0:
	pushq	%rbp
	.cfi_def_cfa_offset 16
	.cfi_offset %rbp, -16
	movq	%rsp, %rbp
	.cfi_def_cfa_register %rbp
	subq	$16, %rsp
	movq	%rdi, -8(%rbp)
	movq	%rsi, -16(%rbp)
	movq	-8(%rbp), %rdi
	movq	-16(%rbp), %rsi
	callq	__ZN3numC2ERKi
	addq	$16, %rsp
	popq	%rbp
	retq
	.cfi_endproc
                                        ## -- End function
	.globl	__ZlsRNSt3__113basic_ostreamIcNS_11char_traitsIcEEEERK3num ## -- Begin function _ZlsRNSt3__113basic_ostreamIcNS_11char_traitsIcEEEERK3num
	.p2align	4, 0x90
__ZlsRNSt3__113basic_ostreamIcNS_11char_traitsIcEEEERK3num: ## @_ZlsRNSt3__113basic_ostreamIcNS_11char_traitsIcEEEERK3num
Lfunc_begin11:
	.cfi_startproc
	.cfi_personality 155, ___gxx_personality_v0
	.cfi_lsda 16, Lexception11
## %bb.0:
	pushq	%rbp
	.cfi_def_cfa_offset 16
	.cfi_offset %rbp, -16
	movq	%rsp, %rbp
	.cfi_def_cfa_register %rbp
	subq	$80, %rsp
	movq	%rdi, -8(%rbp)
	movq	%rsi, -16(%rbp)
	movq	-8(%rbp), %rdi
	movq	-16(%rbp), %rsi
	leaq	-40(%rbp), %rax
	movq	%rdi, -64(%rbp)         ## 8-byte Spill
	movq	%rax, %rdi
	movq	%rax, -72(%rbp)         ## 8-byte Spill
	callq	__ZNK3numcvNSt3__112basic_stringIcNS0_11char_traitsIcEENS0_9allocatorIcEEEEEv
Ltmp149:
	movq	-64(%rbp), %rdi         ## 8-byte Reload
	movq	-72(%rbp), %rsi         ## 8-byte Reload
	callq	__ZNSt3__1lsIcNS_11char_traitsIcEENS_9allocatorIcEEEERNS_13basic_ostreamIT_T0_EES9_RKNS_12basic_stringIS6_S7_T1_EE
Ltmp150:
	movq	%rax, -80(%rbp)         ## 8-byte Spill
	jmp	LBB124_1
LBB124_1:
	leaq	-40(%rbp), %rdi
	callq	__ZNSt3__112basic_stringIcNS_11char_traitsIcEENS_9allocatorIcEEED1Ev
	movq	-80(%rbp), %rax         ## 8-byte Reload
	addq	$80, %rsp
	popq	%rbp
	retq
LBB124_2:
Ltmp151:
                                        ## kill: def $edx killed $edx killed $rdx
	movq	%rax, -48(%rbp)
	movl	%edx, -52(%rbp)
	leaq	-40(%rbp), %rdi
	callq	__ZNSt3__112basic_stringIcNS_11char_traitsIcEENS_9allocatorIcEEED1Ev
## %bb.3:
	movq	-48(%rbp), %rdi
	callq	__Unwind_Resume
	ud2
Lfunc_end11:
	.cfi_endproc
	.section	__TEXT,__gcc_except_tab
	.p2align	2
GCC_except_table124:
Lexception11:
	.byte	255                     ## @LPStart Encoding = omit
	.byte	255                     ## @TType Encoding = omit
	.byte	1                       ## Call site Encoding = uleb128
	.uleb128 Lcst_end11-Lcst_begin11
Lcst_begin11:
	.uleb128 Lfunc_begin11-Lfunc_begin11 ## >> Call Site 1 <<
	.uleb128 Ltmp149-Lfunc_begin11  ##   Call between Lfunc_begin11 and Ltmp149
	.byte	0                       ##     has no landing pad
	.byte	0                       ##   On action: cleanup
	.uleb128 Ltmp149-Lfunc_begin11  ## >> Call Site 2 <<
	.uleb128 Ltmp150-Ltmp149        ##   Call between Ltmp149 and Ltmp150
	.uleb128 Ltmp151-Lfunc_begin11  ##     jumps to Ltmp151
	.byte	0                       ##   On action: cleanup
	.uleb128 Ltmp150-Lfunc_begin11  ## >> Call Site 3 <<
	.uleb128 Lfunc_end11-Ltmp150    ##   Call between Ltmp150 and Lfunc_end11
	.byte	0                       ##     has no landing pad
	.byte	0                       ##   On action: cleanup
Lcst_end11:
	.p2align	2
                                        ## -- End function
	.section	__TEXT,__text,regular,pure_instructions
	.globl	__Z10simpleMathRi       ## -- Begin function _Z10simpleMathRi
	.p2align	4, 0x90
__Z10simpleMathRi:                      ## @_Z10simpleMathRi
	.cfi_startproc
## %bb.0:
	pushq	%rbp
	.cfi_def_cfa_offset 16
	.cfi_offset %rbp, -16
	movq	%rsp, %rbp
	.cfi_def_cfa_register %rbp
	subq	$32, %rsp
	movq	__ZNSt3__14coutE@GOTPCREL(%rip), %rax
	movq	%rdi, -8(%rbp)
	movq	-8(%rbp), %rcx
	movl	(%rcx), %edx
	movl	%edx, -12(%rbp)
	movq	%rax, %rdi
	leaq	L_.str.22(%rip), %rsi
	callq	__ZNSt3__1lsINS_11char_traitsIcEEEERNS_13basic_ostreamIcT_EES6_PKc
	leaq	-12(%rbp), %rcx
	movq	%rax, %rdi
	movq	%rcx, %rsi
	callq	__ZNSt3__113basic_ostreamIcNS_11char_traitsIcEEElsEPKv
	movq	%rax, %rdi
	leaq	__ZNSt3__1L4endlIcNS_11char_traitsIcEEEERNS_13basic_ostreamIT_T0_EES7_(%rip), %rsi
	callq	__ZNSt3__113basic_ostreamIcNS_11char_traitsIcEEElsEPFRS3_S4_E
	movl	-12(%rbp), %edx
	addl	$1, %edx
	movl	%edx, -12(%rbp)
	leaq	-12(%rbp), %rdi
	movq	%rax, -24(%rbp)         ## 8-byte Spill
	callq	__ZNSt3__1L4moveIRiEEONS_16remove_referenceIT_E4typeEOS3_
	addq	$32, %rsp
	popq	%rbp
	retq
	.cfi_endproc
                                        ## -- End function
	.globl	__ZN2xfC2ERKNSt3__112basic_stringIcNS0_11char_traitsIcEENS0_9allocatorIcEEEE ## -- Begin function _ZN2xfC2ERKNSt3__112basic_stringIcNS0_11char_traitsIcEENS0_9allocatorIcEEEE
	.p2align	4, 0x90
__ZN2xfC2ERKNSt3__112basic_stringIcNS0_11char_traitsIcEENS0_9allocatorIcEEEE: ## @_ZN2xfC2ERKNSt3__112basic_stringIcNS0_11char_traitsIcEENS0_9allocatorIcEEEE
Lfunc_begin12:
	.cfi_startproc
	.cfi_personality 155, ___gxx_personality_v0
	.cfi_lsda 16, Lexception12
## %bb.0:
	pushq	%rbp
	.cfi_def_cfa_offset 16
	.cfi_offset %rbp, -16
	movq	%rsp, %rbp
	.cfi_def_cfa_register %rbp
	subq	$64, %rsp
	movq	%rdi, -8(%rbp)
	movq	%rsi, -16(%rbp)
	movq	-8(%rbp), %rax
	movq	%rax, %rcx
	movq	%rax, %rdi
	movq	%rax, -40(%rbp)         ## 8-byte Spill
	movq	%rcx, -48(%rbp)         ## 8-byte Spill
	callq	__ZNSt3__112basic_stringIcNS_11char_traitsIcEENS_9allocatorIcEEEC1Ev
Ltmp152:
	movq	__ZNSt3__14coutE@GOTPCREL(%rip), %rdi
	leaq	L_.str.23(%rip), %rsi
	callq	__ZNSt3__1lsINS_11char_traitsIcEEEERNS_13basic_ostreamIcT_EES6_PKc
Ltmp153:
	movq	%rax, -56(%rbp)         ## 8-byte Spill
	jmp	LBB126_1
LBB126_1:
Ltmp154:
	leaq	__ZNSt3__1L4endlIcNS_11char_traitsIcEEEERNS_13basic_ostreamIT_T0_EES7_(%rip), %rsi
	movq	-56(%rbp), %rdi         ## 8-byte Reload
	callq	__ZNSt3__113basic_ostreamIcNS_11char_traitsIcEEElsEPFRS3_S4_E
Ltmp155:
	jmp	LBB126_2
LBB126_2:
	movq	-16(%rbp), %rsi
Ltmp156:
	movq	-48(%rbp), %rdi         ## 8-byte Reload
	callq	__ZNSt3__112basic_stringIcNS_11char_traitsIcEENS_9allocatorIcEEEaSERKS5_
Ltmp157:
	jmp	LBB126_3
LBB126_3:
	addq	$64, %rsp
	popq	%rbp
	retq
LBB126_4:
Ltmp158:
                                        ## kill: def $edx killed $edx killed $rdx
	movq	%rax, -24(%rbp)
	movl	%edx, -28(%rbp)
	movq	-40(%rbp), %rdi         ## 8-byte Reload
	callq	__ZNSt3__112basic_stringIcNS_11char_traitsIcEENS_9allocatorIcEEED1Ev
## %bb.5:
	movq	-24(%rbp), %rdi
	callq	__Unwind_Resume
	ud2
Lfunc_end12:
	.cfi_endproc
	.section	__TEXT,__gcc_except_tab
	.p2align	2
GCC_except_table126:
Lexception12:
	.byte	255                     ## @LPStart Encoding = omit
	.byte	255                     ## @TType Encoding = omit
	.byte	1                       ## Call site Encoding = uleb128
	.uleb128 Lcst_end12-Lcst_begin12
Lcst_begin12:
	.uleb128 Ltmp152-Lfunc_begin12  ## >> Call Site 1 <<
	.uleb128 Ltmp157-Ltmp152        ##   Call between Ltmp152 and Ltmp157
	.uleb128 Ltmp158-Lfunc_begin12  ##     jumps to Ltmp158
	.byte	0                       ##   On action: cleanup
	.uleb128 Ltmp157-Lfunc_begin12  ## >> Call Site 2 <<
	.uleb128 Lfunc_end12-Ltmp157    ##   Call between Ltmp157 and Lfunc_end12
	.byte	0                       ##     has no landing pad
	.byte	0                       ##   On action: cleanup
Lcst_end12:
	.p2align	2
                                        ## -- End function
	.section	__TEXT,__text,regular,pure_instructions
	.p2align	4, 0x90         ## -- Begin function _ZNSt3__112basic_stringIcNS_11char_traitsIcEENS_9allocatorIcEEEC1Ev
__ZNSt3__112basic_stringIcNS_11char_traitsIcEENS_9allocatorIcEEEC1Ev: ## @_ZNSt3__112basic_stringIcNS_11char_traitsIcEENS_9allocatorIcEEEC1Ev
	.cfi_startproc
## %bb.0:
	pushq	%rbp
	.cfi_def_cfa_offset 16
	.cfi_offset %rbp, -16
	movq	%rsp, %rbp
	.cfi_def_cfa_register %rbp
	subq	$16, %rsp
	movq	%rdi, -8(%rbp)
	movq	-8(%rbp), %rdi
	callq	__ZNSt3__112basic_stringIcNS_11char_traitsIcEENS_9allocatorIcEEEC2Ev
	addq	$16, %rsp
	popq	%rbp
	retq
	.cfi_endproc
                                        ## -- End function
	.globl	__ZN2xfC1ERKNSt3__112basic_stringIcNS0_11char_traitsIcEENS0_9allocatorIcEEEE ## -- Begin function _ZN2xfC1ERKNSt3__112basic_stringIcNS0_11char_traitsIcEENS0_9allocatorIcEEEE
	.p2align	4, 0x90
__ZN2xfC1ERKNSt3__112basic_stringIcNS0_11char_traitsIcEENS0_9allocatorIcEEEE: ## @_ZN2xfC1ERKNSt3__112basic_stringIcNS0_11char_traitsIcEENS0_9allocatorIcEEEE
	.cfi_startproc
## %bb.0:
	pushq	%rbp
	.cfi_def_cfa_offset 16
	.cfi_offset %rbp, -16
	movq	%rsp, %rbp
	.cfi_def_cfa_register %rbp
	subq	$16, %rsp
	movq	%rdi, -8(%rbp)
	movq	%rsi, -16(%rbp)
	movq	-8(%rbp), %rdi
	movq	-16(%rbp), %rsi
	callq	__ZN2xfC2ERKNSt3__112basic_stringIcNS0_11char_traitsIcEENS0_9allocatorIcEEEE
	addq	$16, %rsp
	popq	%rbp
	retq
	.cfi_endproc
                                        ## -- End function
	.globl	__ZNK2xf5printEv        ## -- Begin function _ZNK2xf5printEv
	.p2align	4, 0x90
__ZNK2xf5printEv:                       ## @_ZNK2xf5printEv
	.cfi_startproc
## %bb.0:
	pushq	%rbp
	.cfi_def_cfa_offset 16
	.cfi_offset %rbp, -16
	movq	%rsp, %rbp
	.cfi_def_cfa_register %rbp
	subq	$16, %rsp
	movq	__ZNSt3__14coutE@GOTPCREL(%rip), %rax
	movq	%rdi, -8(%rbp)
	movq	-8(%rbp), %rsi
	movq	%rax, %rdi
	callq	__ZNSt3__1lsIcNS_11char_traitsIcEENS_9allocatorIcEEEERNS_13basic_ostreamIT_T0_EES9_RKNS_12basic_stringIS6_S7_T1_EE
	movq	%rax, %rdi
	leaq	__ZNSt3__1L4endlIcNS_11char_traitsIcEEEERNS_13basic_ostreamIT_T0_EES7_(%rip), %rsi
	callq	__ZNSt3__113basic_ostreamIcNS_11char_traitsIcEEElsEPFRS3_S4_E
	addq	$16, %rsp
	popq	%rbp
	retq
	.cfi_endproc
                                        ## -- End function
	.globl	__ZN2xfC2ERPKc          ## -- Begin function _ZN2xfC2ERPKc
	.p2align	4, 0x90
__ZN2xfC2ERPKc:                         ## @_ZN2xfC2ERPKc
Lfunc_begin13:
	.cfi_startproc
	.cfi_personality 155, ___gxx_personality_v0
	.cfi_lsda 16, Lexception13
## %bb.0:
	pushq	%rbp
	.cfi_def_cfa_offset 16
	.cfi_offset %rbp, -16
	movq	%rsp, %rbp
	.cfi_def_cfa_register %rbp
	subq	$96, %rsp
	movq	%rdi, -8(%rbp)
	movq	%rsi, -16(%rbp)
	movq	-8(%rbp), %rax
	movq	%rax, %rcx
	movq	%rax, %rdi
	movq	%rax, -64(%rbp)         ## 8-byte Spill
	movq	%rcx, -72(%rbp)         ## 8-byte Spill
	callq	__ZNSt3__112basic_stringIcNS_11char_traitsIcEENS_9allocatorIcEEEC1Ev
Ltmp159:
	movq	__ZNSt3__14coutE@GOTPCREL(%rip), %rdi
	leaq	L_.str.24(%rip), %rsi
	callq	__ZNSt3__1lsINS_11char_traitsIcEEEERNS_13basic_ostreamIcT_EES6_PKc
Ltmp160:
	movq	%rax, -80(%rbp)         ## 8-byte Spill
	jmp	LBB130_1
LBB130_1:
Ltmp161:
	leaq	__ZNSt3__1L4endlIcNS_11char_traitsIcEEEERNS_13basic_ostreamIT_T0_EES7_(%rip), %rsi
	movq	-80(%rbp), %rdi         ## 8-byte Reload
	callq	__ZNSt3__113basic_ostreamIcNS_11char_traitsIcEEElsEPFRS3_S4_E
Ltmp162:
	jmp	LBB130_2
LBB130_2:
	movq	-16(%rbp), %rax
	movq	(%rax), %rsi
Ltmp163:
	leaq	-56(%rbp), %rdi
	callq	__ZNSt3__112basic_stringIcNS_11char_traitsIcEENS_9allocatorIcEEEC1IDnEEPKc
Ltmp164:
	jmp	LBB130_3
LBB130_3:
	movq	-72(%rbp), %rdi         ## 8-byte Reload
	leaq	-56(%rbp), %rsi
	callq	__ZNSt3__112basic_stringIcNS_11char_traitsIcEENS_9allocatorIcEEEaSEOS5_
	leaq	-56(%rbp), %rdi
	movq	%rax, -88(%rbp)         ## 8-byte Spill
	callq	__ZNSt3__112basic_stringIcNS_11char_traitsIcEENS_9allocatorIcEEED1Ev
	addq	$96, %rsp
	popq	%rbp
	retq
LBB130_4:
Ltmp165:
                                        ## kill: def $edx killed $edx killed $rdx
	movq	%rax, -24(%rbp)
	movl	%edx, -28(%rbp)
	movq	-64(%rbp), %rdi         ## 8-byte Reload
	callq	__ZNSt3__112basic_stringIcNS_11char_traitsIcEENS_9allocatorIcEEED1Ev
## %bb.5:
	movq	-24(%rbp), %rdi
	callq	__Unwind_Resume
	ud2
Lfunc_end13:
	.cfi_endproc
	.section	__TEXT,__gcc_except_tab
	.p2align	2
GCC_except_table130:
Lexception13:
	.byte	255                     ## @LPStart Encoding = omit
	.byte	255                     ## @TType Encoding = omit
	.byte	1                       ## Call site Encoding = uleb128
	.uleb128 Lcst_end13-Lcst_begin13
Lcst_begin13:
	.uleb128 Ltmp159-Lfunc_begin13  ## >> Call Site 1 <<
	.uleb128 Ltmp164-Ltmp159        ##   Call between Ltmp159 and Ltmp164
	.uleb128 Ltmp165-Lfunc_begin13  ##     jumps to Ltmp165
	.byte	0                       ##   On action: cleanup
	.uleb128 Ltmp164-Lfunc_begin13  ## >> Call Site 2 <<
	.uleb128 Lfunc_end13-Ltmp164    ##   Call between Ltmp164 and Lfunc_end13
	.byte	0                       ##     has no landing pad
	.byte	0                       ##   On action: cleanup
Lcst_end13:
	.p2align	2
                                        ## -- End function
	.section	__TEXT,__text,regular,pure_instructions
	.p2align	4, 0x90         ## -- Begin function _ZNSt3__112basic_stringIcNS_11char_traitsIcEENS_9allocatorIcEEEaSEOS5_
__ZNSt3__112basic_stringIcNS_11char_traitsIcEENS_9allocatorIcEEEaSEOS5_: ## @_ZNSt3__112basic_stringIcNS_11char_traitsIcEENS_9allocatorIcEEEaSEOS5_
	.cfi_startproc
## %bb.0:
	pushq	%rbp
	.cfi_def_cfa_offset 16
	.cfi_offset %rbp, -16
	movq	%rsp, %rbp
	.cfi_def_cfa_register %rbp
	subq	$32, %rsp
	movq	%rdi, -8(%rbp)
	movq	%rsi, -16(%rbp)
	movq	-8(%rbp), %rax
	movq	-16(%rbp), %rsi
	movq	%rax, %rdi
	movq	%rax, -32(%rbp)         ## 8-byte Spill
	callq	__ZNSt3__112basic_stringIcNS_11char_traitsIcEENS_9allocatorIcEEE13__move_assignERS5_NS_17integral_constantIbLb1EEE
	movq	-32(%rbp), %rax         ## 8-byte Reload
	addq	$32, %rsp
	popq	%rbp
	retq
	.cfi_endproc
                                        ## -- End function
	.globl	__ZN2xfC1ERPKc          ## -- Begin function _ZN2xfC1ERPKc
	.p2align	4, 0x90
__ZN2xfC1ERPKc:                         ## @_ZN2xfC1ERPKc
	.cfi_startproc
## %bb.0:
	pushq	%rbp
	.cfi_def_cfa_offset 16
	.cfi_offset %rbp, -16
	movq	%rsp, %rbp
	.cfi_def_cfa_register %rbp
	subq	$16, %rsp
	movq	%rdi, -8(%rbp)
	movq	%rsi, -16(%rbp)
	movq	-8(%rbp), %rdi
	movq	-16(%rbp), %rsi
	callq	__ZN2xfC2ERPKc
	addq	$16, %rsp
	popq	%rbp
	retq
	.cfi_endproc
                                        ## -- End function
	.globl	__ZN2xfC2EOPc           ## -- Begin function _ZN2xfC2EOPc
	.p2align	4, 0x90
__ZN2xfC2EOPc:                          ## @_ZN2xfC2EOPc
Lfunc_begin14:
	.cfi_startproc
	.cfi_personality 155, ___gxx_personality_v0
	.cfi_lsda 16, Lexception14
## %bb.0:
	pushq	%rbp
	.cfi_def_cfa_offset 16
	.cfi_offset %rbp, -16
	movq	%rsp, %rbp
	.cfi_def_cfa_register %rbp
	subq	$96, %rsp
	movq	%rdi, -8(%rbp)
	movq	%rsi, -16(%rbp)
	movq	-8(%rbp), %rax
	movq	%rax, %rcx
	movq	%rax, %rdi
	movq	%rax, -64(%rbp)         ## 8-byte Spill
	movq	%rcx, -72(%rbp)         ## 8-byte Spill
	callq	__ZNSt3__112basic_stringIcNS_11char_traitsIcEENS_9allocatorIcEEEC1Ev
Ltmp166:
	movq	__ZNSt3__14coutE@GOTPCREL(%rip), %rdi
	leaq	L_.str.25(%rip), %rsi
	callq	__ZNSt3__1lsINS_11char_traitsIcEEEERNS_13basic_ostreamIcT_EES6_PKc
Ltmp167:
	movq	%rax, -80(%rbp)         ## 8-byte Spill
	jmp	LBB133_1
LBB133_1:
Ltmp168:
	leaq	__ZNSt3__1L4endlIcNS_11char_traitsIcEEEERNS_13basic_ostreamIT_T0_EES7_(%rip), %rsi
	movq	-80(%rbp), %rdi         ## 8-byte Reload
	callq	__ZNSt3__113basic_ostreamIcNS_11char_traitsIcEEElsEPFRS3_S4_E
Ltmp169:
	jmp	LBB133_2
LBB133_2:
	movq	-16(%rbp), %rdi
	callq	__ZNSt3__1L4moveIRPcEEONS_16remove_referenceIT_E4typeEOS4_
	movq	(%rax), %rsi
Ltmp170:
	leaq	-56(%rbp), %rdi
	callq	__ZNSt3__112basic_stringIcNS_11char_traitsIcEENS_9allocatorIcEEEC1IDnEEPKc
Ltmp171:
	jmp	LBB133_3
LBB133_3:
	movq	-72(%rbp), %rdi         ## 8-byte Reload
	leaq	-56(%rbp), %rsi
	callq	__ZNSt3__112basic_stringIcNS_11char_traitsIcEENS_9allocatorIcEEEaSEOS5_
	leaq	-56(%rbp), %rdi
	movq	%rax, -88(%rbp)         ## 8-byte Spill
	callq	__ZNSt3__112basic_stringIcNS_11char_traitsIcEENS_9allocatorIcEEED1Ev
	addq	$96, %rsp
	popq	%rbp
	retq
LBB133_4:
Ltmp172:
                                        ## kill: def $edx killed $edx killed $rdx
	movq	%rax, -24(%rbp)
	movl	%edx, -28(%rbp)
	movq	-64(%rbp), %rdi         ## 8-byte Reload
	callq	__ZNSt3__112basic_stringIcNS_11char_traitsIcEENS_9allocatorIcEEED1Ev
## %bb.5:
	movq	-24(%rbp), %rdi
	callq	___clang_call_terminate
Lfunc_end14:
	.cfi_endproc
	.section	__TEXT,__gcc_except_tab
	.p2align	2
GCC_except_table133:
Lexception14:
	.byte	255                     ## @LPStart Encoding = omit
	.byte	155                     ## @TType Encoding = indirect pcrel sdata4
	.uleb128 Lttbase3-Lttbaseref3
Lttbaseref3:
	.byte	1                       ## Call site Encoding = uleb128
	.uleb128 Lcst_end14-Lcst_begin14
Lcst_begin14:
	.uleb128 Ltmp166-Lfunc_begin14  ## >> Call Site 1 <<
	.uleb128 Ltmp171-Ltmp166        ##   Call between Ltmp166 and Ltmp171
	.uleb128 Ltmp172-Lfunc_begin14  ##     jumps to Ltmp172
	.byte	1                       ##   On action: 1
Lcst_end14:
	.byte	1                       ## >> Action Record 1 <<
                                        ##   Catch TypeInfo 1
	.byte	0                       ##   No further actions
	.p2align	2
                                        ## >> Catch TypeInfos <<
	.long	0                       ## TypeInfo 1
Lttbase3:
	.p2align	2
                                        ## -- End function
	.section	__TEXT,__text,regular,pure_instructions
	.p2align	4, 0x90         ## -- Begin function _ZNSt3__1L4moveIRPcEEONS_16remove_referenceIT_E4typeEOS4_
__ZNSt3__1L4moveIRPcEEONS_16remove_referenceIT_E4typeEOS4_: ## @_ZNSt3__1L4moveIRPcEEONS_16remove_referenceIT_E4typeEOS4_
	.cfi_startproc
## %bb.0:
	pushq	%rbp
	.cfi_def_cfa_offset 16
	.cfi_offset %rbp, -16
	movq	%rsp, %rbp
	.cfi_def_cfa_register %rbp
	movq	%rdi, -8(%rbp)
	movq	-8(%rbp), %rax
	popq	%rbp
	retq
	.cfi_endproc
                                        ## -- End function
	.globl	__ZN2xfC1EOPc           ## -- Begin function _ZN2xfC1EOPc
	.p2align	4, 0x90
__ZN2xfC1EOPc:                          ## @_ZN2xfC1EOPc
	.cfi_startproc
## %bb.0:
	pushq	%rbp
	.cfi_def_cfa_offset 16
	.cfi_offset %rbp, -16
	movq	%rsp, %rbp
	.cfi_def_cfa_register %rbp
	subq	$16, %rsp
	movq	%rdi, -8(%rbp)
	movq	%rsi, -16(%rbp)
	movq	-8(%rbp), %rdi
	movq	-16(%rbp), %rsi
	callq	__ZN2xfC2EOPc
	addq	$16, %rsp
	popq	%rbp
	retq
	.cfi_endproc
                                        ## -- End function
	.globl	__Z13generateErrorOKiOi ## -- Begin function _Z13generateErrorOKiOi
	.p2align	4, 0x90
__Z13generateErrorOKiOi:                ## @_Z13generateErrorOKiOi
Lfunc_begin15:
	.cfi_startproc
	.cfi_personality 155, ___gxx_personality_v0
	.cfi_lsda 16, Lexception15
## %bb.0:
	pushq	%rbp
	.cfi_def_cfa_offset 16
	.cfi_offset %rbp, -16
	movq	%rsp, %rbp
	.cfi_def_cfa_register %rbp
	subq	$48, %rsp
	movq	%rdi, -8(%rbp)
	movq	%rsi, -16(%rbp)
	movq	-16(%rbp), %rax
	cmpl	$0, (%rax)
	jne	LBB136_4
## %bb.1:
	movl	$16, %edi
	callq	___cxa_allocate_exception
	movq	%rax, %rcx
Ltmp173:
	leaq	L_.str.26(%rip), %rsi
	movq	%rax, %rdi
	movq	%rcx, -40(%rbp)         ## 8-byte Spill
	callq	__ZNSt14overflow_errorC1EPKc
Ltmp174:
	jmp	LBB136_2
LBB136_2:
	movq	__ZTISt14overflow_error@GOTPCREL(%rip), %rsi
	movq	__ZNSt14overflow_errorD1Ev@GOTPCREL(%rip), %rdx
	movq	-40(%rbp), %rdi         ## 8-byte Reload
	callq	___cxa_throw
LBB136_3:
Ltmp175:
                                        ## kill: def $edx killed $edx killed $rdx
	movq	%rax, -24(%rbp)
	movl	%edx, -28(%rbp)
	movq	-40(%rbp), %rdi         ## 8-byte Reload
	callq	___cxa_free_exception
	jmp	LBB136_5
LBB136_4:
	movq	-8(%rbp), %rax
	movl	(%rax), %eax
	movq	-16(%rbp), %rcx
	cltd
	idivl	(%rcx)
	addq	$48, %rsp
	popq	%rbp
	retq
LBB136_5:
	movq	-24(%rbp), %rdi
	callq	__Unwind_Resume
	ud2
Lfunc_end15:
	.cfi_endproc
	.section	__TEXT,__gcc_except_tab
	.p2align	2
GCC_except_table136:
Lexception15:
	.byte	255                     ## @LPStart Encoding = omit
	.byte	255                     ## @TType Encoding = omit
	.byte	1                       ## Call site Encoding = uleb128
	.uleb128 Lcst_end15-Lcst_begin15
Lcst_begin15:
	.uleb128 Lfunc_begin15-Lfunc_begin15 ## >> Call Site 1 <<
	.uleb128 Ltmp173-Lfunc_begin15  ##   Call between Lfunc_begin15 and Ltmp173
	.byte	0                       ##     has no landing pad
	.byte	0                       ##   On action: cleanup
	.uleb128 Ltmp173-Lfunc_begin15  ## >> Call Site 2 <<
	.uleb128 Ltmp174-Ltmp173        ##   Call between Ltmp173 and Ltmp174
	.uleb128 Ltmp175-Lfunc_begin15  ##     jumps to Ltmp175
	.byte	0                       ##   On action: cleanup
	.uleb128 Ltmp174-Lfunc_begin15  ## >> Call Site 3 <<
	.uleb128 Lfunc_end15-Ltmp174    ##   Call between Ltmp174 and Lfunc_end15
	.byte	0                       ##     has no landing pad
	.byte	0                       ##   On action: cleanup
Lcst_end15:
	.p2align	2
                                        ## -- End function
	.section	__TEXT,__text,regular,pure_instructions
	.p2align	4, 0x90         ## -- Begin function _ZNSt14overflow_errorC1EPKc
__ZNSt14overflow_errorC1EPKc:           ## @_ZNSt14overflow_errorC1EPKc
	.cfi_startproc
## %bb.0:
	pushq	%rbp
	.cfi_def_cfa_offset 16
	.cfi_offset %rbp, -16
	movq	%rsp, %rbp
	.cfi_def_cfa_register %rbp
	subq	$16, %rsp
	movq	%rdi, -8(%rbp)
	movq	%rsi, -16(%rbp)
	movq	-8(%rbp), %rdi
	movq	-16(%rbp), %rsi
	callq	__ZNSt14overflow_errorC2EPKc
	addq	$16, %rsp
	popq	%rbp
	retq
	.cfi_endproc
                                        ## -- End function
	.globl	__ZN2MFC2ERKi           ## -- Begin function _ZN2MFC2ERKi
	.p2align	4, 0x90
__ZN2MFC2ERKi:                          ## @_ZN2MFC2ERKi
	.cfi_startproc
## %bb.0:
	pushq	%rbp
	.cfi_def_cfa_offset 16
	.cfi_offset %rbp, -16
	movq	%rsp, %rbp
	.cfi_def_cfa_register %rbp
	leaq	__ZTV2MF(%rip), %rax
	addq	$16, %rax
	movq	%rdi, -8(%rbp)
	movq	%rsi, -16(%rbp)
	movq	-8(%rbp), %rcx
	movq	%rax, (%rcx)
	movl	$0, 8(%rcx)
	movq	-16(%rbp), %rax
	movl	(%rax), %edx
	movl	%edx, 8(%rcx)
	popq	%rbp
	retq
	.cfi_endproc
                                        ## -- End function
	.globl	__ZN2MFC1ERKi           ## -- Begin function _ZN2MFC1ERKi
	.p2align	4, 0x90
__ZN2MFC1ERKi:                          ## @_ZN2MFC1ERKi
	.cfi_startproc
## %bb.0:
	pushq	%rbp
	.cfi_def_cfa_offset 16
	.cfi_offset %rbp, -16
	movq	%rsp, %rbp
	.cfi_def_cfa_register %rbp
	subq	$16, %rsp
	movq	%rdi, -8(%rbp)
	movq	%rsi, -16(%rbp)
	movq	-8(%rbp), %rdi
	movq	-16(%rbp), %rsi
	callq	__ZN2MFC2ERKi
	addq	$16, %rsp
	popq	%rbp
	retq
	.cfi_endproc
                                        ## -- End function
	.globl	__ZNK2MF8getValueEv     ## -- Begin function _ZNK2MF8getValueEv
	.p2align	4, 0x90
__ZNK2MF8getValueEv:                    ## @_ZNK2MF8getValueEv
	.cfi_startproc
## %bb.0:
	pushq	%rbp
	.cfi_def_cfa_offset 16
	.cfi_offset %rbp, -16
	movq	%rsp, %rbp
	.cfi_def_cfa_register %rbp
	movq	%rdi, -8(%rbp)
	movq	-8(%rbp), %rax
	movl	8(%rax), %eax
	popq	%rbp
	retq
	.cfi_endproc
                                        ## -- End function
	.globl	__ZN2MF8setValueEi      ## -- Begin function _ZN2MF8setValueEi
	.p2align	4, 0x90
__ZN2MF8setValueEi:                     ## @_ZN2MF8setValueEi
	.cfi_startproc
## %bb.0:
	pushq	%rbp
	.cfi_def_cfa_offset 16
	.cfi_offset %rbp, -16
	movq	%rsp, %rbp
	.cfi_def_cfa_register %rbp
	movq	%rdi, -8(%rbp)
	movl	%esi, -12(%rbp)
	movq	-8(%rbp), %rax
	movl	-12(%rbp), %ecx
	movl	%ecx, 8(%rax)
	popq	%rbp
	retq
	.cfi_endproc
                                        ## -- End function
	.globl	__ZN2MFD2Ev             ## -- Begin function _ZN2MFD2Ev
	.p2align	4, 0x90
__ZN2MFD2Ev:                            ## @_ZN2MFD2Ev
Lfunc_begin16:
	.cfi_startproc
	.cfi_personality 155, ___gxx_personality_v0
	.cfi_lsda 16, Lexception16
## %bb.0:
	pushq	%rbp
	.cfi_def_cfa_offset 16
	.cfi_offset %rbp, -16
	movq	%rsp, %rbp
	.cfi_def_cfa_register %rbp
	subq	$32, %rsp
	movq	%rdi, -8(%rbp)
	movq	-8(%rbp), %rax
	leaq	__ZTV2MF+16(%rip), %rcx
	movq	%rcx, (%rax)
Ltmp176:
	movq	__ZNSt3__14coutE@GOTPCREL(%rip), %rdi
	leaq	L_.str.27(%rip), %rsi
	callq	__ZNSt3__1lsINS_11char_traitsIcEEEERNS_13basic_ostreamIcT_EES6_PKc
Ltmp177:
	movq	%rax, -16(%rbp)         ## 8-byte Spill
	jmp	LBB142_1
LBB142_1:
Ltmp178:
	leaq	__ZNSt3__1L4endlIcNS_11char_traitsIcEEEERNS_13basic_ostreamIT_T0_EES7_(%rip), %rsi
	movq	-16(%rbp), %rdi         ## 8-byte Reload
	callq	__ZNSt3__113basic_ostreamIcNS_11char_traitsIcEEElsEPFRS3_S4_E
Ltmp179:
	jmp	LBB142_2
LBB142_2:
	addq	$32, %rsp
	popq	%rbp
	retq
LBB142_3:
Ltmp180:
	movq	%rax, %rdi
	movq	%rdx, -24(%rbp)         ## 8-byte Spill
	callq	___clang_call_terminate
Lfunc_end16:
	.cfi_endproc
	.section	__TEXT,__gcc_except_tab
	.p2align	2
GCC_except_table142:
Lexception16:
	.byte	255                     ## @LPStart Encoding = omit
	.byte	155                     ## @TType Encoding = indirect pcrel sdata4
	.uleb128 Lttbase4-Lttbaseref4
Lttbaseref4:
	.byte	1                       ## Call site Encoding = uleb128
	.uleb128 Lcst_end16-Lcst_begin16
Lcst_begin16:
	.uleb128 Ltmp176-Lfunc_begin16  ## >> Call Site 1 <<
	.uleb128 Ltmp179-Ltmp176        ##   Call between Ltmp176 and Ltmp179
	.uleb128 Ltmp180-Lfunc_begin16  ##     jumps to Ltmp180
	.byte	1                       ##   On action: 1
Lcst_end16:
	.byte	1                       ## >> Action Record 1 <<
                                        ##   Catch TypeInfo 1
	.byte	0                       ##   No further actions
	.p2align	2
                                        ## >> Catch TypeInfos <<
	.long	0                       ## TypeInfo 1
Lttbase4:
	.p2align	2
                                        ## -- End function
	.section	__TEXT,__text,regular,pure_instructions
	.globl	__ZN2MFD1Ev             ## -- Begin function _ZN2MFD1Ev
	.p2align	4, 0x90
__ZN2MFD1Ev:                            ## @_ZN2MFD1Ev
	.cfi_startproc
## %bb.0:
	pushq	%rbp
	.cfi_def_cfa_offset 16
	.cfi_offset %rbp, -16
	movq	%rsp, %rbp
	.cfi_def_cfa_register %rbp
	subq	$16, %rsp
	movq	%rdi, -8(%rbp)
	movq	-8(%rbp), %rdi
	callq	__ZN2MFD2Ev
	addq	$16, %rsp
	popq	%rbp
	retq
	.cfi_endproc
                                        ## -- End function
	.globl	__ZN2MFD0Ev             ## -- Begin function _ZN2MFD0Ev
	.p2align	4, 0x90
__ZN2MFD0Ev:                            ## @_ZN2MFD0Ev
	.cfi_startproc
## %bb.0:
	pushq	%rbp
	.cfi_def_cfa_offset 16
	.cfi_offset %rbp, -16
	movq	%rsp, %rbp
	.cfi_def_cfa_register %rbp
	subq	$16, %rsp
	movq	%rdi, -8(%rbp)
	movq	-8(%rbp), %rax
	movq	%rax, %rdi
	movq	%rax, -16(%rbp)         ## 8-byte Spill
	callq	__ZN2MFD1Ev
	movq	-16(%rbp), %rax         ## 8-byte Reload
	movq	%rax, %rdi
	callq	__ZdlPv
	addq	$16, %rsp
	popq	%rbp
	retq
	.cfi_endproc
                                        ## -- End function
	.globl	__ZN2MFC2ERKS_          ## -- Begin function _ZN2MFC2ERKS_
	.p2align	4, 0x90
__ZN2MFC2ERKS_:                         ## @_ZN2MFC2ERKS_
	.cfi_startproc
## %bb.0:
	pushq	%rbp
	.cfi_def_cfa_offset 16
	.cfi_offset %rbp, -16
	movq	%rsp, %rbp
	.cfi_def_cfa_register %rbp
	subq	$32, %rsp
	movq	__ZNSt3__14coutE@GOTPCREL(%rip), %rax
	leaq	__ZTV2MF(%rip), %rcx
	addq	$16, %rcx
	movq	%rdi, -8(%rbp)
	movq	%rsi, -16(%rbp)
	movq	-8(%rbp), %rdx
	movq	%rcx, (%rdx)
	movl	$0, 8(%rdx)
	movq	%rax, %rdi
	leaq	L_.str.28(%rip), %rsi
	movq	%rdx, -24(%rbp)         ## 8-byte Spill
	callq	__ZNSt3__1lsINS_11char_traitsIcEEEERNS_13basic_ostreamIcT_EES6_PKc
	movq	%rax, %rdi
	leaq	__ZNSt3__1L4endlIcNS_11char_traitsIcEEEERNS_13basic_ostreamIT_T0_EES7_(%rip), %rsi
	callq	__ZNSt3__113basic_ostreamIcNS_11char_traitsIcEEElsEPFRS3_S4_E
	movq	-16(%rbp), %rdi
	movq	%rax, -32(%rbp)         ## 8-byte Spill
	callq	__ZNK2MF8getValueEv
	movq	-24(%rbp), %rcx         ## 8-byte Reload
	movl	%eax, 8(%rcx)
	addq	$32, %rsp
	popq	%rbp
	retq
	.cfi_endproc
                                        ## -- End function
	.globl	__ZN2MFC1ERKS_          ## -- Begin function _ZN2MFC1ERKS_
	.p2align	4, 0x90
__ZN2MFC1ERKS_:                         ## @_ZN2MFC1ERKS_
	.cfi_startproc
## %bb.0:
	pushq	%rbp
	.cfi_def_cfa_offset 16
	.cfi_offset %rbp, -16
	movq	%rsp, %rbp
	.cfi_def_cfa_register %rbp
	subq	$16, %rsp
	movq	%rdi, -8(%rbp)
	movq	%rsi, -16(%rbp)
	movq	-8(%rbp), %rdi
	movq	-16(%rbp), %rsi
	callq	__ZN2MFC2ERKS_
	addq	$16, %rsp
	popq	%rbp
	retq
	.cfi_endproc
                                        ## -- End function
	.globl	__ZN2MFC2EOS_           ## -- Begin function _ZN2MFC2EOS_
	.p2align	4, 0x90
__ZN2MFC2EOS_:                          ## @_ZN2MFC2EOS_
Lfunc_begin17:
	.cfi_startproc
	.cfi_personality 155, ___gxx_personality_v0
	.cfi_lsda 16, Lexception17
## %bb.0:
	pushq	%rbp
	.cfi_def_cfa_offset 16
	.cfi_offset %rbp, -16
	movq	%rsp, %rbp
	.cfi_def_cfa_register %rbp
	subq	$48, %rsp
	movq	%rdi, -8(%rbp)
	movq	%rsi, -16(%rbp)
	movq	-8(%rbp), %rax
	leaq	__ZTV2MF+16(%rip), %rcx
	movq	%rcx, (%rax)
	movl	$0, 8(%rax)
Ltmp181:
	movq	__ZNSt3__14coutE@GOTPCREL(%rip), %rdi
	leaq	L_.str.29(%rip), %rsi
	movq	%rax, -24(%rbp)         ## 8-byte Spill
	callq	__ZNSt3__1lsINS_11char_traitsIcEEEERNS_13basic_ostreamIcT_EES6_PKc
Ltmp182:
	movq	%rax, -32(%rbp)         ## 8-byte Spill
	jmp	LBB147_1
LBB147_1:
Ltmp183:
	leaq	__ZNSt3__1L4endlIcNS_11char_traitsIcEEEERNS_13basic_ostreamIT_T0_EES7_(%rip), %rsi
	movq	-32(%rbp), %rdi         ## 8-byte Reload
	callq	__ZNSt3__113basic_ostreamIcNS_11char_traitsIcEEElsEPFRS3_S4_E
Ltmp184:
	jmp	LBB147_2
LBB147_2:
	movq	-16(%rbp), %rdi
	callq	__ZNSt3__1L4moveIR2MFEEONS_16remove_referenceIT_E4typeEOS4_
	movq	-24(%rbp), %rdi         ## 8-byte Reload
	movq	%rax, %rsi
	callq	__ZN2MFaSEOS_
	addq	$48, %rsp
	popq	%rbp
	retq
LBB147_3:
Ltmp185:
	movq	%rax, %rdi
	movq	%rdx, -40(%rbp)         ## 8-byte Spill
	callq	___clang_call_terminate
Lfunc_end17:
	.cfi_endproc
	.section	__TEXT,__gcc_except_tab
	.p2align	2
GCC_except_table147:
Lexception17:
	.byte	255                     ## @LPStart Encoding = omit
	.byte	155                     ## @TType Encoding = indirect pcrel sdata4
	.uleb128 Lttbase5-Lttbaseref5
Lttbaseref5:
	.byte	1                       ## Call site Encoding = uleb128
	.uleb128 Lcst_end17-Lcst_begin17
Lcst_begin17:
	.uleb128 Ltmp181-Lfunc_begin17  ## >> Call Site 1 <<
	.uleb128 Ltmp184-Ltmp181        ##   Call between Ltmp181 and Ltmp184
	.uleb128 Ltmp185-Lfunc_begin17  ##     jumps to Ltmp185
	.byte	1                       ##   On action: 1
Lcst_end17:
	.byte	1                       ## >> Action Record 1 <<
                                        ##   Catch TypeInfo 1
	.byte	0                       ##   No further actions
	.p2align	2
                                        ## >> Catch TypeInfos <<
	.long	0                       ## TypeInfo 1
Lttbase5:
	.p2align	2
                                        ## -- End function
	.section	__TEXT,__text,regular,pure_instructions
	.p2align	4, 0x90         ## -- Begin function _ZNSt3__1L4moveIR2MFEEONS_16remove_referenceIT_E4typeEOS4_
__ZNSt3__1L4moveIR2MFEEONS_16remove_referenceIT_E4typeEOS4_: ## @_ZNSt3__1L4moveIR2MFEEONS_16remove_referenceIT_E4typeEOS4_
	.cfi_startproc
## %bb.0:
	pushq	%rbp
	.cfi_def_cfa_offset 16
	.cfi_offset %rbp, -16
	movq	%rsp, %rbp
	.cfi_def_cfa_register %rbp
	movq	%rdi, -8(%rbp)
	movq	-8(%rbp), %rax
	popq	%rbp
	retq
	.cfi_endproc
                                        ## -- End function
	.globl	__ZN2MFaSEOS_           ## -- Begin function _ZN2MFaSEOS_
	.p2align	4, 0x90
__ZN2MFaSEOS_:                          ## @_ZN2MFaSEOS_
Lfunc_begin18:
	.cfi_startproc
	.cfi_personality 155, ___gxx_personality_v0
	.cfi_lsda 16, Lexception18
## %bb.0:
	pushq	%rbp
	.cfi_def_cfa_offset 16
	.cfi_offset %rbp, -16
	movq	%rsp, %rbp
	.cfi_def_cfa_register %rbp
	subq	$48, %rsp
	movq	%rdi, -8(%rbp)
	movq	%rsi, -16(%rbp)
	movq	-8(%rbp), %rax
	cmpq	-16(%rbp), %rax
	movq	%rax, -24(%rbp)         ## 8-byte Spill
	je	LBB149_3
## %bb.1:
	movq	-16(%rbp), %rdi
Ltmp186:
	callq	__ZNK2MF8getValueEv
Ltmp187:
	movl	%eax, -28(%rbp)         ## 4-byte Spill
	jmp	LBB149_2
LBB149_2:
	movq	-24(%rbp), %rax         ## 8-byte Reload
	movl	-28(%rbp), %ecx         ## 4-byte Reload
	movl	%ecx, 8(%rax)
LBB149_3:
	movq	-24(%rbp), %rax         ## 8-byte Reload
	addq	$48, %rsp
	popq	%rbp
	retq
LBB149_4:
Ltmp188:
	movq	%rax, %rdi
	movq	%rdx, -40(%rbp)         ## 8-byte Spill
	callq	___clang_call_terminate
Lfunc_end18:
	.cfi_endproc
	.section	__TEXT,__gcc_except_tab
	.p2align	2
GCC_except_table149:
Lexception18:
	.byte	255                     ## @LPStart Encoding = omit
	.byte	155                     ## @TType Encoding = indirect pcrel sdata4
	.uleb128 Lttbase6-Lttbaseref6
Lttbaseref6:
	.byte	1                       ## Call site Encoding = uleb128
	.uleb128 Lcst_end18-Lcst_begin18
Lcst_begin18:
	.uleb128 Ltmp186-Lfunc_begin18  ## >> Call Site 1 <<
	.uleb128 Ltmp187-Ltmp186        ##   Call between Ltmp186 and Ltmp187
	.uleb128 Ltmp188-Lfunc_begin18  ##     jumps to Ltmp188
	.byte	1                       ##   On action: 1
Lcst_end18:
	.byte	1                       ## >> Action Record 1 <<
                                        ##   Catch TypeInfo 1
	.byte	0                       ##   No further actions
	.p2align	2
                                        ## >> Catch TypeInfos <<
	.long	0                       ## TypeInfo 1
Lttbase6:
	.p2align	2
                                        ## -- End function
	.section	__TEXT,__text,regular,pure_instructions
	.globl	__ZN2MFC1EOS_           ## -- Begin function _ZN2MFC1EOS_
	.p2align	4, 0x90
__ZN2MFC1EOS_:                          ## @_ZN2MFC1EOS_
	.cfi_startproc
## %bb.0:
	pushq	%rbp
	.cfi_def_cfa_offset 16
	.cfi_offset %rbp, -16
	movq	%rsp, %rbp
	.cfi_def_cfa_register %rbp
	subq	$16, %rsp
	movq	%rdi, -8(%rbp)
	movq	%rsi, -16(%rbp)
	movq	-8(%rbp), %rdi
	movq	-16(%rbp), %rsi
	callq	__ZN2MFC2EOS_
	addq	$16, %rsp
	popq	%rbp
	retq
	.cfi_endproc
                                        ## -- End function
	.globl	__Z7PrintMF2MF          ## -- Begin function _Z7PrintMF2MF
	.p2align	4, 0x90
__Z7PrintMF2MF:                         ## @_Z7PrintMF2MF
	.cfi_startproc
## %bb.0:
	pushq	%rbp
	.cfi_def_cfa_offset 16
	.cfi_offset %rbp, -16
	movq	%rsp, %rbp
	.cfi_def_cfa_register %rbp
	subq	$16, %rsp
	movq	__ZNSt3__14coutE@GOTPCREL(%rip), %rax
	movq	%rdi, -8(%rbp)          ## 8-byte Spill
	movq	%rax, %rdi
	leaq	L_.str.30(%rip), %rsi
	callq	__ZNSt3__1lsINS_11char_traitsIcEEEERNS_13basic_ostreamIcT_EES6_PKc
	movq	-8(%rbp), %rdi          ## 8-byte Reload
	movq	%rax, -16(%rbp)         ## 8-byte Spill
	callq	__ZNK2MF8getValueEv
	movq	-16(%rbp), %rdi         ## 8-byte Reload
	movl	%eax, %esi
	callq	__ZNSt3__113basic_ostreamIcNS_11char_traitsIcEEElsEi
	movq	%rax, %rdi
	leaq	__ZNSt3__1L4endlIcNS_11char_traitsIcEEEERNS_13basic_ostreamIT_T0_EES7_(%rip), %rsi
	callq	__ZNSt3__113basic_ostreamIcNS_11char_traitsIcEEElsEPFRS3_S4_E
	addq	$16, %rsp
	popq	%rbp
	retq
	.cfi_endproc
                                        ## -- End function
	.globl	__ZN2MFaSERKS_          ## -- Begin function _ZN2MFaSERKS_
	.p2align	4, 0x90
__ZN2MFaSERKS_:                         ## @_ZN2MFaSERKS_
	.cfi_startproc
## %bb.0:
	pushq	%rbp
	.cfi_def_cfa_offset 16
	.cfi_offset %rbp, -16
	movq	%rsp, %rbp
	.cfi_def_cfa_register %rbp
	subq	$32, %rsp
	movq	%rdi, -8(%rbp)
	movq	%rsi, -16(%rbp)
	movq	-8(%rbp), %rax
	cmpq	-16(%rbp), %rax
	movq	%rax, -24(%rbp)         ## 8-byte Spill
	je	LBB152_2
## %bb.1:
	movq	-16(%rbp), %rdi
	callq	__ZNK2MF8getValueEv
	movq	-24(%rbp), %rcx         ## 8-byte Reload
	movl	%eax, 8(%rcx)
LBB152_2:
	movq	-24(%rbp), %rax         ## 8-byte Reload
	addq	$32, %rsp
	popq	%rbp
	retq
	.cfi_endproc
                                        ## -- End function
	.globl	__Z9spliceArrPKim       ## -- Begin function _Z9spliceArrPKim
	.p2align	4, 0x90
__Z9spliceArrPKim:                      ## @_Z9spliceArrPKim
	.cfi_startproc
## %bb.0:
	pushq	%rbp
	.cfi_def_cfa_offset 16
	.cfi_offset %rbp, -16
	movq	%rsp, %rbp
	.cfi_def_cfa_register %rbp
	subq	$48, %rsp
	movq	%rdi, -16(%rbp)
	movq	%rsi, -24(%rbp)
	cmpq	$0, -24(%rbp)
	jne	LBB153_2
## %bb.1:
	movq	$0, -8(%rbp)
	jmp	LBB153_7
LBB153_2:
	movq	-24(%rbp), %rax
	subq	$1, %rax
	movl	$4, %ecx
	mulq	%rcx
	seto	%sil
	movq	$-1, %rcx
	cmovoq	%rcx, %rax
	movq	%rax, %rdi
	movb	%sil, -37(%rbp)         ## 1-byte Spill
	callq	__Znam
	movq	%rax, -32(%rbp)
	movl	$1, -36(%rbp)
LBB153_3:                               ## =>This Inner Loop Header: Depth=1
	movslq	-36(%rbp), %rax
	cmpq	-24(%rbp), %rax
	jae	LBB153_6
## %bb.4:                               ##   in Loop: Header=BB153_3 Depth=1
	movq	-16(%rbp), %rax
	movslq	-36(%rbp), %rcx
	movl	(%rax,%rcx,4), %edx
	movq	-32(%rbp), %rax
	movl	-36(%rbp), %esi
	subl	$1, %esi
	movslq	%esi, %rcx
	movl	%edx, (%rax,%rcx,4)
## %bb.5:                               ##   in Loop: Header=BB153_3 Depth=1
	movl	-36(%rbp), %eax
	addl	$1, %eax
	movl	%eax, -36(%rbp)
	jmp	LBB153_3
LBB153_6:
	movq	-32(%rbp), %rax
	movq	%rax, -8(%rbp)
LBB153_7:
	movq	-8(%rbp), %rax
	addq	$48, %rsp
	popq	%rbp
	retq
	.cfi_endproc
                                        ## -- End function
	.globl	__Z6recSumPim           ## -- Begin function _Z6recSumPim
	.p2align	4, 0x90
__Z6recSumPim:                          ## @_Z6recSumPim
	.cfi_startproc
## %bb.0:
	pushq	%rbp
	.cfi_def_cfa_offset 16
	.cfi_offset %rbp, -16
	movq	%rsp, %rbp
	.cfi_def_cfa_register %rbp
	subq	$48, %rsp
	movq	%rdi, -16(%rbp)
	movq	%rsi, -24(%rbp)
	cmpq	$0, -24(%rbp)
	jne	LBB154_2
## %bb.1:
	movl	$0, -4(%rbp)
	jmp	LBB154_9
LBB154_2:
	cmpq	$1, -24(%rbp)
	jne	LBB154_4
## %bb.3:
	movq	-16(%rbp), %rax
	movl	(%rax), %ecx
	movl	%ecx, -4(%rbp)
	jmp	LBB154_9
LBB154_4:
	movq	-16(%rbp), %rdi
	movq	-24(%rbp), %rsi
	callq	__Z9spliceArrPKim
	movq	%rax, -32(%rbp)
	movl	$0, -36(%rbp)
LBB154_5:                               ## =>This Inner Loop Header: Depth=1
	movslq	-36(%rbp), %rax
	movq	-24(%rbp), %rcx
	subq	$1, %rcx
	cmpq	%rcx, %rax
	jae	LBB154_8
## %bb.6:                               ##   in Loop: Header=BB154_5 Depth=1
	movq	__ZNSt3__14coutE@GOTPCREL(%rip), %rdi
	leaq	L_.str.31(%rip), %rsi
	callq	__ZNSt3__1lsINS_11char_traitsIcEEEERNS_13basic_ostreamIcT_EES6_PKc
	movl	-36(%rbp), %esi
	movq	%rax, %rdi
	callq	__ZNSt3__113basic_ostreamIcNS_11char_traitsIcEEElsEi
	movq	%rax, %rdi
	leaq	L_.str.32(%rip), %rsi
	callq	__ZNSt3__1lsINS_11char_traitsIcEEEERNS_13basic_ostreamIcT_EES6_PKc
	movq	-32(%rbp), %rcx
	movslq	-36(%rbp), %rdx
	movl	(%rcx,%rdx,4), %esi
	movq	%rax, %rdi
	callq	__ZNSt3__113basic_ostreamIcNS_11char_traitsIcEEElsEi
	movq	%rax, %rdi
	leaq	__ZNSt3__1L4endlIcNS_11char_traitsIcEEEERNS_13basic_ostreamIT_T0_EES7_(%rip), %rsi
	callq	__ZNSt3__113basic_ostreamIcNS_11char_traitsIcEEElsEPFRS3_S4_E
## %bb.7:                               ##   in Loop: Header=BB154_5 Depth=1
	movl	-36(%rbp), %eax
	addl	$1, %eax
	movl	%eax, -36(%rbp)
	jmp	LBB154_5
LBB154_8:
	movq	-16(%rbp), %rax
	movl	(%rax), %ecx
	movq	-32(%rbp), %rdi
	movq	-24(%rbp), %rax
	subq	$1, %rax
	movq	%rax, %rsi
	movl	%ecx, -40(%rbp)         ## 4-byte Spill
	callq	__Z6recSumPim
	movl	-40(%rbp), %ecx         ## 4-byte Reload
	addl	%eax, %ecx
	movl	%ecx, -4(%rbp)
LBB154_9:
	movl	-4(%rbp), %eax
	addq	$48, %rsp
	popq	%rbp
	retq
	.cfi_endproc
                                        ## -- End function
	.globl	__Z9quickSortPim        ## -- Begin function _Z9quickSortPim
	.p2align	4, 0x90
__Z9quickSortPim:                       ## @_Z9quickSortPim
	.cfi_startproc
## %bb.0:
	pushq	%rbp
	.cfi_def_cfa_offset 16
	.cfi_offset %rbp, -16
	movq	%rsp, %rbp
	.cfi_def_cfa_register %rbp
	subq	$112, %rsp
	movq	%rdi, -16(%rbp)
	movq	%rsi, -24(%rbp)
	cmpq	$2, -24(%rbp)
	jae	LBB155_2
## %bb.1:
	movq	-16(%rbp), %rax
	movq	%rax, -8(%rbp)
	jmp	LBB155_32
LBB155_2:
	movl	$0, -28(%rbp)
	movl	$0, -32(%rbp)
	movq	-24(%rbp), %rax
	shrq	$1, %rax
                                        ## kill: def $eax killed $eax killed $rax
	movl	%eax, -36(%rbp)
	movl	$0, -40(%rbp)
LBB155_3:                               ## =>This Inner Loop Header: Depth=1
	movslq	-40(%rbp), %rax
	cmpq	-24(%rbp), %rax
	jae	LBB155_11
## %bb.4:                               ##   in Loop: Header=BB155_3 Depth=1
	movq	-16(%rbp), %rax
	movslq	-40(%rbp), %rcx
	movl	(%rax,%rcx,4), %edx
	movq	-16(%rbp), %rax
	movslq	-36(%rbp), %rcx
	cmpl	(%rax,%rcx,4), %edx
	jge	LBB155_6
## %bb.5:                               ##   in Loop: Header=BB155_3 Depth=1
	movl	-28(%rbp), %eax
	addl	$1, %eax
	movl	%eax, -28(%rbp)
	jmp	LBB155_9
LBB155_6:                               ##   in Loop: Header=BB155_3 Depth=1
	movq	-16(%rbp), %rax
	movslq	-40(%rbp), %rcx
	movl	(%rax,%rcx,4), %edx
	movq	-16(%rbp), %rax
	movslq	-36(%rbp), %rcx
	cmpl	(%rax,%rcx,4), %edx
	jle	LBB155_8
## %bb.7:                               ##   in Loop: Header=BB155_3 Depth=1
	movl	-32(%rbp), %eax
	addl	$1, %eax
	movl	%eax, -32(%rbp)
LBB155_8:                               ##   in Loop: Header=BB155_3 Depth=1
	jmp	LBB155_9
LBB155_9:                               ##   in Loop: Header=BB155_3 Depth=1
	jmp	LBB155_10
LBB155_10:                              ##   in Loop: Header=BB155_3 Depth=1
	movl	-40(%rbp), %eax
	addl	$1, %eax
	movl	%eax, -40(%rbp)
	jmp	LBB155_3
LBB155_11:
	movl	-28(%rbp), %eax
	addl	$1, %eax
	cltq
	movl	$4, %ecx
	mulq	%rcx
	seto	%sil
	movq	$-1, %rcx
	cmovoq	%rcx, %rax
	movq	%rax, %rdi
	movb	%sil, -97(%rbp)         ## 1-byte Spill
	callq	__Znam
	movq	%rax, -48(%rbp)
	movslq	-32(%rbp), %rax
	movl	$4, %ecx
	mulq	%rcx
	seto	%sil
	movq	$-1, %rcx
	cmovoq	%rcx, %rax
	movq	%rax, %rdi
	movb	%sil, -98(%rbp)         ## 1-byte Spill
	callq	__Znam
	movq	%rax, -56(%rbp)
	movl	$0, -28(%rbp)
	movl	$0, -32(%rbp)
	movl	$0, -60(%rbp)
LBB155_12:                              ## =>This Inner Loop Header: Depth=1
	movslq	-60(%rbp), %rax
	cmpq	-24(%rbp), %rax
	jae	LBB155_20
## %bb.13:                              ##   in Loop: Header=BB155_12 Depth=1
	movq	-16(%rbp), %rax
	movslq	-60(%rbp), %rcx
	movl	(%rax,%rcx,4), %edx
	movq	-16(%rbp), %rax
	movslq	-36(%rbp), %rcx
	cmpl	(%rax,%rcx,4), %edx
	jge	LBB155_15
## %bb.14:                              ##   in Loop: Header=BB155_12 Depth=1
	movq	-16(%rbp), %rax
	movslq	-60(%rbp), %rcx
	movl	(%rax,%rcx,4), %edx
	movq	-48(%rbp), %rax
	movl	-28(%rbp), %esi
	movl	%esi, %edi
	addl	$1, %edi
	movl	%edi, -28(%rbp)
	movslq	%esi, %rcx
	movl	%edx, (%rax,%rcx,4)
	jmp	LBB155_18
LBB155_15:                              ##   in Loop: Header=BB155_12 Depth=1
	movq	-16(%rbp), %rax
	movslq	-60(%rbp), %rcx
	movl	(%rax,%rcx,4), %edx
	movq	-16(%rbp), %rax
	movslq	-36(%rbp), %rcx
	cmpl	(%rax,%rcx,4), %edx
	jle	LBB155_17
## %bb.16:                              ##   in Loop: Header=BB155_12 Depth=1
	movq	-16(%rbp), %rax
	movslq	-60(%rbp), %rcx
	movl	(%rax,%rcx,4), %edx
	movq	-56(%rbp), %rax
	movl	-32(%rbp), %esi
	movl	%esi, %edi
	addl	$1, %edi
	movl	%edi, -32(%rbp)
	movslq	%esi, %rcx
	movl	%edx, (%rax,%rcx,4)
LBB155_17:                              ##   in Loop: Header=BB155_12 Depth=1
	jmp	LBB155_18
LBB155_18:                              ##   in Loop: Header=BB155_12 Depth=1
	jmp	LBB155_19
LBB155_19:                              ##   in Loop: Header=BB155_12 Depth=1
	movl	-60(%rbp), %eax
	addl	$1, %eax
	movl	%eax, -60(%rbp)
	jmp	LBB155_12
LBB155_20:
	movq	-16(%rbp), %rax
	movslq	-36(%rbp), %rcx
	movl	(%rax,%rcx,4), %edx
	movq	-48(%rbp), %rax
	movslq	-28(%rbp), %rcx
	movl	%edx, (%rax,%rcx,4)
	cmpl	$0, -32(%rbp)
	je	LBB155_22
## %bb.21:
	movl	-32(%rbp), %eax
	movl	%eax, %ecx
	addl	$-1, %ecx
	movl	%ecx, -32(%rbp)
	movl	%eax, -104(%rbp)        ## 4-byte Spill
	jmp	LBB155_23
LBB155_22:
	xorl	%eax, %eax
	movl	%eax, -104(%rbp)        ## 4-byte Spill
	jmp	LBB155_23
LBB155_23:
	movl	-104(%rbp), %eax        ## 4-byte Reload
	movl	%eax, -32(%rbp)
	movq	-48(%rbp), %rdi
	movslq	-28(%rbp), %rsi
	callq	__Z9quickSortPim
	movq	%rax, -72(%rbp)
	movq	-56(%rbp), %rdi
	movslq	-32(%rbp), %rsi
	callq	__Z9quickSortPim
	movq	%rax, -80(%rbp)
	movl	-28(%rbp), %ecx
	addl	-32(%rbp), %ecx
	movslq	%ecx, %rax
	movl	$4, %edx
	mulq	%rdx
	seto	%r8b
	movq	$-1, %rsi
	cmovoq	%rsi, %rax
	movq	%rax, %rdi
	movb	%r8b, -105(%rbp)        ## 1-byte Spill
	callq	__Znam
	movq	%rax, -88(%rbp)
	movl	$0, -92(%rbp)
LBB155_24:                              ## =>This Inner Loop Header: Depth=1
	movl	-92(%rbp), %eax
	cmpl	-28(%rbp), %eax
	jge	LBB155_27
## %bb.25:                              ##   in Loop: Header=BB155_24 Depth=1
	movq	-72(%rbp), %rax
	movslq	-92(%rbp), %rcx
	movl	(%rax,%rcx,4), %edx
	movq	-88(%rbp), %rax
	movslq	-92(%rbp), %rcx
	movl	%edx, (%rax,%rcx,4)
## %bb.26:                              ##   in Loop: Header=BB155_24 Depth=1
	movl	-92(%rbp), %eax
	addl	$1, %eax
	movl	%eax, -92(%rbp)
	jmp	LBB155_24
LBB155_27:
	movl	-28(%rbp), %eax
	movl	%eax, -96(%rbp)
LBB155_28:                              ## =>This Inner Loop Header: Depth=1
	movl	-96(%rbp), %eax
	movl	-28(%rbp), %ecx
	addl	-32(%rbp), %ecx
	cmpl	%ecx, %eax
	jge	LBB155_31
## %bb.29:                              ##   in Loop: Header=BB155_28 Depth=1
	movq	-80(%rbp), %rax
	movslq	-96(%rbp), %rcx
	movl	(%rax,%rcx,4), %edx
	movq	-88(%rbp), %rax
	movslq	-96(%rbp), %rcx
	movl	%edx, (%rax,%rcx,4)
## %bb.30:                              ##   in Loop: Header=BB155_28 Depth=1
	movl	-96(%rbp), %eax
	addl	$1, %eax
	movl	%eax, -96(%rbp)
	jmp	LBB155_28
LBB155_31:
	movq	-88(%rbp), %rdi
	movl	-28(%rbp), %eax
	addl	-32(%rbp), %eax
	movslq	%eax, %rsi
	callq	__Z9quickSortPim
	movq	%rax, -8(%rbp)
LBB155_32:
	movq	-8(%rbp), %rax
	addq	$112, %rsp
	popq	%rbp
	retq
	.cfi_endproc
                                        ## -- End function
	.globl	__Z2fxv                 ## -- Begin function _Z2fxv
	.p2align	4, 0x90
__Z2fxv:                                ## @_Z2fxv
	.cfi_startproc
## %bb.0:
	pushq	%rbp
	.cfi_def_cfa_offset 16
	.cfi_offset %rbp, -16
	movq	%rsp, %rbp
	.cfi_def_cfa_register %rbp
	subq	$16, %rsp
	movq	__ZNSt3__14coutE@GOTPCREL(%rip), %rdi
	leaq	L_.str.33(%rip), %rsi
	callq	__ZNSt3__1lsINS_11char_traitsIcEEEERNS_13basic_ostreamIcT_EES6_PKc
	movl	-12(%rbp), %esi
	movq	%rax, %rdi
	callq	__ZNSt3__113basic_ostreamIcNS_11char_traitsIcEEElsEi
	movq	%rax, %rdi
	leaq	__ZNSt3__1L4endlIcNS_11char_traitsIcEEEERNS_13basic_ostreamIT_T0_EES7_(%rip), %rsi
	callq	__ZNSt3__113basic_ostreamIcNS_11char_traitsIcEEElsEPFRS3_S4_E
	addq	$16, %rsp
	popq	%rbp
	retq
	.cfi_endproc
                                        ## -- End function
	.globl	__Z6strlenPc            ## -- Begin function _Z6strlenPc
	.p2align	4, 0x90
__Z6strlenPc:                           ## @_Z6strlenPc
	.cfi_startproc
## %bb.0:
	pushq	%rbp
	.cfi_def_cfa_offset 16
	.cfi_offset %rbp, -16
	movq	%rsp, %rbp
	.cfi_def_cfa_register %rbp
	movq	%rdi, -8(%rbp)
	movl	$0, -12(%rbp)
	movl	$0, -16(%rbp)
LBB157_1:                               ## =>This Inner Loop Header: Depth=1
	movq	-8(%rbp), %rax
	movl	-12(%rbp), %ecx
	movl	%ecx, %edx
	addl	$1, %edx
	movl	%edx, -12(%rbp)
	movslq	%ecx, %rsi
	movsbl	(%rax,%rsi), %ecx
	cmpl	$0, %ecx
	je	LBB157_3
## %bb.2:                               ##   in Loop: Header=BB157_1 Depth=1
	movl	-16(%rbp), %eax
	addl	$1, %eax
	movl	%eax, -16(%rbp)
	jmp	LBB157_1
LBB157_3:
	movl	-16(%rbp), %eax
	popq	%rbp
	retq
	.cfi_endproc
                                        ## -- End function
	.globl	__Z8SumForMePim         ## -- Begin function _Z8SumForMePim
	.p2align	4, 0x90
__Z8SumForMePim:                        ## @_Z8SumForMePim
Lfunc_begin19:
	.cfi_startproc
	.cfi_personality 155, ___gxx_personality_v0
	.cfi_lsda 16, Lexception19
## %bb.0:
	pushq	%rbp
	.cfi_def_cfa_offset 16
	.cfi_offset %rbp, -16
	movq	%rsp, %rbp
	.cfi_def_cfa_register %rbp
	subq	$48, %rsp
	movq	%rdi, -8(%rbp)
	movq	%rsi, -16(%rbp)
	cmpq	$0, -16(%rbp)
	jne	LBB158_4
## %bb.1:
	movl	$24, %edi
	callq	___cxa_allocate_exception
	movq	%rax, %rcx
Ltmp189:
	leaq	L_.str.34(%rip), %rsi
	movq	%rax, %rdi
	movq	%rcx, -48(%rbp)         ## 8-byte Spill
	callq	__ZNSt3__112basic_stringIcNS_11char_traitsIcEENS_9allocatorIcEEEC1IDnEEPKc
Ltmp190:
	jmp	LBB158_2
LBB158_2:
	movq	__ZTINSt3__112basic_stringIcNS_11char_traitsIcEENS_9allocatorIcEEEE@GOTPCREL(%rip), %rsi
	movq	__ZNSt3__112basic_stringIcNS_11char_traitsIcEENS_9allocatorIcEEED1Ev@GOTPCREL(%rip), %rdx
	movq	-48(%rbp), %rdi         ## 8-byte Reload
	callq	___cxa_throw
LBB158_3:
Ltmp191:
                                        ## kill: def $edx killed $edx killed $rdx
	movq	%rax, -24(%rbp)
	movl	%edx, -28(%rbp)
	movq	-48(%rbp), %rdi         ## 8-byte Reload
	callq	___cxa_free_exception
	jmp	LBB158_11
LBB158_4:
	movl	$0, -32(%rbp)
	movl	$0, -36(%rbp)
LBB158_5:                               ## =>This Inner Loop Header: Depth=1
	movslq	-36(%rbp), %rax
	movq	-16(%rbp), %rcx
	subq	$1, %rcx
	cmpq	%rcx, %rax
	jae	LBB158_8
## %bb.6:                               ##   in Loop: Header=BB158_5 Depth=1
	movq	-8(%rbp), %rax
	movslq	-36(%rbp), %rcx
	movl	(%rax,%rcx,4), %edx
	addl	-32(%rbp), %edx
	movl	%edx, -32(%rbp)
## %bb.7:                               ##   in Loop: Header=BB158_5 Depth=1
	movl	-36(%rbp), %eax
	addl	$1, %eax
	movl	%eax, -36(%rbp)
	jmp	LBB158_5
LBB158_8:
	cmpl	$100, -32(%rbp)
	jae	LBB158_10
## %bb.9:
	movl	$4, %edi
	callq	___cxa_allocate_exception
	movl	-32(%rbp), %ecx
	movl	%ecx, (%rax)
	movq	__ZTIj@GOTPCREL(%rip), %rsi
	xorl	%ecx, %ecx
	movl	%ecx, %edx
	movq	%rax, %rdi
	callq	___cxa_throw
LBB158_10:
	movl	-32(%rbp), %eax
	addq	$48, %rsp
	popq	%rbp
	retq
LBB158_11:
	movq	-24(%rbp), %rdi
	callq	__Unwind_Resume
	ud2
Lfunc_end19:
	.cfi_endproc
	.section	__TEXT,__gcc_except_tab
	.p2align	2
GCC_except_table158:
Lexception19:
	.byte	255                     ## @LPStart Encoding = omit
	.byte	255                     ## @TType Encoding = omit
	.byte	1                       ## Call site Encoding = uleb128
	.uleb128 Lcst_end19-Lcst_begin19
Lcst_begin19:
	.uleb128 Lfunc_begin19-Lfunc_begin19 ## >> Call Site 1 <<
	.uleb128 Ltmp189-Lfunc_begin19  ##   Call between Lfunc_begin19 and Ltmp189
	.byte	0                       ##     has no landing pad
	.byte	0                       ##   On action: cleanup
	.uleb128 Ltmp189-Lfunc_begin19  ## >> Call Site 2 <<
	.uleb128 Ltmp190-Ltmp189        ##   Call between Ltmp189 and Ltmp190
	.uleb128 Ltmp191-Lfunc_begin19  ##     jumps to Ltmp191
	.byte	0                       ##   On action: cleanup
	.uleb128 Ltmp190-Lfunc_begin19  ## >> Call Site 3 <<
	.uleb128 Lfunc_end19-Ltmp190    ##   Call between Ltmp190 and Lfunc_end19
	.byte	0                       ##     has no landing pad
	.byte	0                       ##   On action: cleanup
Lcst_end19:
	.p2align	2
                                        ## -- End function
	.section	__TEXT,__text,regular,pure_instructions
	.globl	__Z2ttRKNSt3__112basic_stringIcNS_11char_traitsIcEENS_9allocatorIcEEEE ## -- Begin function _Z2ttRKNSt3__112basic_stringIcNS_11char_traitsIcEENS_9allocatorIcEEEE
	.p2align	4, 0x90
__Z2ttRKNSt3__112basic_stringIcNS_11char_traitsIcEENS_9allocatorIcEEEE: ## @_Z2ttRKNSt3__112basic_stringIcNS_11char_traitsIcEENS_9allocatorIcEEEE
Lfunc_begin20:
	.cfi_startproc
	.cfi_personality 155, ___gxx_personality_v0
	.cfi_lsda 16, Lexception20
## %bb.0:
	pushq	%rbp
	.cfi_def_cfa_offset 16
	.cfi_offset %rbp, -16
	movq	%rsp, %rbp
	.cfi_def_cfa_register %rbp
	subq	$80, %rsp
	movq	%rdi, -8(%rbp)
	movq	-8(%rbp), %rdi
	callq	__ZNKSt3__112basic_stringIcNS_11char_traitsIcEENS_9allocatorIcEEE5c_strEv
	movq	%rax, %rdi
	callq	_strlen
	movq	%rax, -16(%rbp)
	cmpq	$0, -16(%rbp)
	jne	LBB159_9
## %bb.1:
	movl	$32, %edi
	callq	___cxa_allocate_exception
	movq	%rax, %rcx
	movb	$1, -53(%rbp)
Ltmp192:
	leaq	L_.str.35(%rip), %rsi
	leaq	-40(%rbp), %rdi
	movq	%rcx, -64(%rbp)         ## 8-byte Spill
	movq	%rax, -72(%rbp)         ## 8-byte Spill
	callq	__ZNSt3__112basic_stringIcNS_11char_traitsIcEENS_9allocatorIcEEEC1IDnEEPKc
Ltmp193:
	jmp	LBB159_2
LBB159_2:
Ltmp195:
	leaq	-40(%rbp), %rsi
	movq	-72(%rbp), %rdi         ## 8-byte Reload
	callq	__ZN11MyExceptionC1ERKNSt3__112basic_stringIcNS0_11char_traitsIcEENS0_9allocatorIcEEEE
Ltmp196:
	jmp	LBB159_3
LBB159_3:
	movb	$0, -53(%rbp)
Ltmp197:
	movq	__ZTI11MyException@GOTPCREL(%rip), %rsi
	movq	__ZN11MyExceptionD1Ev@GOTPCREL(%rip), %rdx
	movq	-64(%rbp), %rdi         ## 8-byte Reload
	callq	___cxa_throw
Ltmp198:
	jmp	LBB159_11
LBB159_4:
Ltmp194:
                                        ## kill: def $edx killed $edx killed $rdx
	movq	%rax, -48(%rbp)
	movl	%edx, -52(%rbp)
	jmp	LBB159_6
LBB159_5:
Ltmp199:
                                        ## kill: def $edx killed $edx killed $rdx
	movq	%rax, -48(%rbp)
	movl	%edx, -52(%rbp)
	leaq	-40(%rbp), %rdi
	callq	__ZNSt3__112basic_stringIcNS_11char_traitsIcEENS_9allocatorIcEEED1Ev
LBB159_6:
	testb	$1, -53(%rbp)
	jne	LBB159_7
	jmp	LBB159_8
LBB159_7:
	movq	-64(%rbp), %rdi         ## 8-byte Reload
	callq	___cxa_free_exception
LBB159_8:
	jmp	LBB159_10
LBB159_9:
	movq	-16(%rbp), %rax
                                        ## kill: def $eax killed $eax killed $rax
	addq	$80, %rsp
	popq	%rbp
	retq
LBB159_10:
	movq	-48(%rbp), %rdi
	callq	__Unwind_Resume
	ud2
LBB159_11:
	ud2
Lfunc_end20:
	.cfi_endproc
	.section	__TEXT,__gcc_except_tab
	.p2align	2
GCC_except_table159:
Lexception20:
	.byte	255                     ## @LPStart Encoding = omit
	.byte	255                     ## @TType Encoding = omit
	.byte	1                       ## Call site Encoding = uleb128
	.uleb128 Lcst_end20-Lcst_begin20
Lcst_begin20:
	.uleb128 Lfunc_begin20-Lfunc_begin20 ## >> Call Site 1 <<
	.uleb128 Ltmp192-Lfunc_begin20  ##   Call between Lfunc_begin20 and Ltmp192
	.byte	0                       ##     has no landing pad
	.byte	0                       ##   On action: cleanup
	.uleb128 Ltmp192-Lfunc_begin20  ## >> Call Site 2 <<
	.uleb128 Ltmp193-Ltmp192        ##   Call between Ltmp192 and Ltmp193
	.uleb128 Ltmp194-Lfunc_begin20  ##     jumps to Ltmp194
	.byte	0                       ##   On action: cleanup
	.uleb128 Ltmp195-Lfunc_begin20  ## >> Call Site 3 <<
	.uleb128 Ltmp198-Ltmp195        ##   Call between Ltmp195 and Ltmp198
	.uleb128 Ltmp199-Lfunc_begin20  ##     jumps to Ltmp199
	.byte	0                       ##   On action: cleanup
	.uleb128 Ltmp198-Lfunc_begin20  ## >> Call Site 4 <<
	.uleb128 Lfunc_end20-Ltmp198    ##   Call between Ltmp198 and Lfunc_end20
	.byte	0                       ##     has no landing pad
	.byte	0                       ##   On action: cleanup
Lcst_end20:
	.p2align	2
                                        ## -- End function
	.section	__TEXT,__text,regular,pure_instructions
	.globl	__ZN11MyExceptionC1ERKNSt3__112basic_stringIcNS0_11char_traitsIcEENS0_9allocatorIcEEEE ## -- Begin function _ZN11MyExceptionC1ERKNSt3__112basic_stringIcNS0_11char_traitsIcEENS0_9allocatorIcEEEE
	.weak_def_can_be_hidden	__ZN11MyExceptionC1ERKNSt3__112basic_stringIcNS0_11char_traitsIcEENS0_9allocatorIcEEEE
	.p2align	4, 0x90
__ZN11MyExceptionC1ERKNSt3__112basic_stringIcNS0_11char_traitsIcEENS0_9allocatorIcEEEE: ## @_ZN11MyExceptionC1ERKNSt3__112basic_stringIcNS0_11char_traitsIcEENS0_9allocatorIcEEEE
	.cfi_startproc
## %bb.0:
	pushq	%rbp
	.cfi_def_cfa_offset 16
	.cfi_offset %rbp, -16
	movq	%rsp, %rbp
	.cfi_def_cfa_register %rbp
	subq	$16, %rsp
	movq	%rdi, -8(%rbp)
	movq	%rsi, -16(%rbp)
	movq	-8(%rbp), %rdi
	movq	-16(%rbp), %rsi
	callq	__ZN11MyExceptionC2ERKNSt3__112basic_stringIcNS0_11char_traitsIcEENS0_9allocatorIcEEEE
	addq	$16, %rsp
	popq	%rbp
	retq
	.cfi_endproc
                                        ## -- End function
	.globl	__ZN11MyExceptionD1Ev   ## -- Begin function _ZN11MyExceptionD1Ev
	.weak_def_can_be_hidden	__ZN11MyExceptionD1Ev
	.p2align	4, 0x90
__ZN11MyExceptionD1Ev:                  ## @_ZN11MyExceptionD1Ev
	.cfi_startproc
## %bb.0:
	pushq	%rbp
	.cfi_def_cfa_offset 16
	.cfi_offset %rbp, -16
	movq	%rsp, %rbp
	.cfi_def_cfa_register %rbp
	subq	$16, %rsp
	movq	%rdi, -8(%rbp)
	movq	-8(%rbp), %rdi
	callq	__ZN11MyExceptionD2Ev
	addq	$16, %rsp
	popq	%rbp
	retq
	.cfi_endproc
                                        ## -- End function
	.globl	__Z3texv                ## -- Begin function _Z3texv
	.p2align	4, 0x90
__Z3texv:                               ## @_Z3texv
	.cfi_startproc
## %bb.0:
	pushq	%rbp
	.cfi_def_cfa_offset 16
	.cfi_offset %rbp, -16
	movq	%rsp, %rbp
	.cfi_def_cfa_register %rbp
	subq	$16, %rsp
	movq	__ZNSt3__14coutE@GOTPCREL(%rip), %rdi
	movl	-4(%rbp), %esi
	callq	__ZNSt3__113basic_ostreamIcNS_11char_traitsIcEEElsEi
	movq	%rax, %rdi
	leaq	L_.str.36(%rip), %rsi
	callq	__ZNSt3__1lsINS_11char_traitsIcEEEERNS_13basic_ostreamIcT_EES6_PKc
	addq	$16, %rsp
	popq	%rbp
	retq
	.cfi_endproc
                                        ## -- End function
	.globl	__Z1gOi                 ## -- Begin function _Z1gOi
	.p2align	4, 0x90
__Z1gOi:                                ## @_Z1gOi
	.cfi_startproc
## %bb.0:
	pushq	%rbp
	.cfi_def_cfa_offset 16
	.cfi_offset %rbp, -16
	movq	%rsp, %rbp
	.cfi_def_cfa_register %rbp
	movq	%rdi, -8(%rbp)
	popq	%rbp
	retq
	.cfi_endproc
                                        ## -- End function
	.globl	__ZlsRNSt3__113basic_ostreamIcNS_11char_traitsIcEEEERK4test ## -- Begin function _ZlsRNSt3__113basic_ostreamIcNS_11char_traitsIcEEEERK4test
	.p2align	4, 0x90
__ZlsRNSt3__113basic_ostreamIcNS_11char_traitsIcEEEERK4test: ## @_ZlsRNSt3__113basic_ostreamIcNS_11char_traitsIcEEEERK4test
	.cfi_startproc
## %bb.0:
	pushq	%rbp
	.cfi_def_cfa_offset 16
	.cfi_offset %rbp, -16
	movq	%rsp, %rbp
	.cfi_def_cfa_register %rbp
	subq	$32, %rsp
	movq	%rdi, -8(%rbp)
	movq	%rsi, -16(%rbp)
	movq	-8(%rbp), %rdi
	leaq	L_.str.37(%rip), %rsi
	callq	__ZNSt3__1lsINS_11char_traitsIcEEEERNS_13basic_ostreamIcT_EES6_PKc
	movq	-16(%rbp), %rsi
	movq	%rax, %rdi
	callq	__ZlsRNSt3__113basic_ostreamIcNS_11char_traitsIcEEEERK4test
	movq	-8(%rbp), %rcx
	movq	%rax, -24(%rbp)         ## 8-byte Spill
	movq	%rcx, %rax
	addq	$32, %rsp
	popq	%rbp
	retq
	.cfi_endproc
                                        ## -- End function
	.globl	__Z5main4v              ## -- Begin function _Z5main4v
	.p2align	4, 0x90
__Z5main4v:                             ## @_Z5main4v
	.cfi_startproc
## %bb.0:
	pushq	%rbp
	.cfi_def_cfa_offset 16
	.cfi_offset %rbp, -16
	movq	%rsp, %rbp
	.cfi_def_cfa_register %rbp
	subq	$16, %rsp
	movq	__ZNSt3__14coutE@GOTPCREL(%rip), %rdi
	leaq	L_.str.38(%rip), %rsi
	callq	__ZNSt3__1lsINS_11char_traitsIcEEEERNS_13basic_ostreamIcT_EES6_PKc
	xorl	%ecx, %ecx
	movq	%rax, -8(%rbp)          ## 8-byte Spill
	movl	%ecx, %eax
	addq	$16, %rsp
	popq	%rbp
	retq
	.cfi_endproc
                                        ## -- End function
	.globl	__Z10CountDigitRKx      ## -- Begin function _Z10CountDigitRKx
	.p2align	4, 0x90
__Z10CountDigitRKx:                     ## @_Z10CountDigitRKx
	.cfi_startproc
## %bb.0:
	pushq	%rbp
	.cfi_def_cfa_offset 16
	.cfi_offset %rbp, -16
	movq	%rsp, %rbp
	.cfi_def_cfa_register %rbp
	subq	$32, %rsp
	movq	%rdi, -16(%rbp)
	movq	-16(%rbp), %rax
	cmpq	$0, (%rax)
	jne	LBB166_2
## %bb.1:
	movl	$0, -4(%rbp)
	jmp	LBB166_3
LBB166_2:
	movq	-16(%rbp), %rax
	movq	(%rax), %rax
	cqto
	movl	$10, %ecx
	idivq	%rcx
	movq	%rax, -24(%rbp)
	leaq	-24(%rbp), %rdi
	callq	__Z10CountDigitRKx
	addl	$1, %eax
	movl	%eax, -4(%rbp)
LBB166_3:
	movl	-4(%rbp), %eax
	addq	$32, %rsp
	popq	%rbp
	retq
	.cfi_endproc
                                        ## -- End function
	.section	__TEXT,__literal8,8byte_literals
	.p2align	3               ## -- Begin function _Z15CountDigitByLogRKx
LCPI167_0:
	.quad	4607182418800017408     ## double 1
	.section	__TEXT,__text,regular,pure_instructions
	.globl	__Z15CountDigitByLogRKx
	.p2align	4, 0x90
__Z15CountDigitByLogRKx:                ## @_Z15CountDigitByLogRKx
	.cfi_startproc
## %bb.0:
	pushq	%rbp
	.cfi_def_cfa_offset 16
	.cfi_offset %rbp, -16
	movq	%rsp, %rbp
	.cfi_def_cfa_register %rbp
	subq	$16, %rsp
	movq	%rdi, -8(%rbp)
	movq	-8(%rbp), %rax
	movq	(%rax), %rdi
	callq	__ZL5log10IxENSt3__19enable_ifIXsr3std11is_integralIT_EE5valueEdE4typeES2_
	movsd	LCPI167_0(%rip), %xmm1  ## xmm1 = mem[0],zero
	addsd	%xmm1, %xmm0
	roundsd	$9, %xmm0, %xmm0
	cvttsd2si	%xmm0, %eax
	addq	$16, %rsp
	popq	%rbp
	retq
	.cfi_endproc
                                        ## -- End function
	.p2align	4, 0x90         ## -- Begin function _ZL5log10IxENSt3__19enable_ifIXsr3std11is_integralIT_EE5valueEdE4typeES2_
__ZL5log10IxENSt3__19enable_ifIXsr3std11is_integralIT_EE5valueEdE4typeES2_: ## @_ZL5log10IxENSt3__19enable_ifIXsr3std11is_integralIT_EE5valueEdE4typeES2_
	.cfi_startproc
## %bb.0:
	pushq	%rbp
	.cfi_def_cfa_offset 16
	.cfi_offset %rbp, -16
	movq	%rsp, %rbp
	.cfi_def_cfa_register %rbp
	subq	$16, %rsp
	movq	%rdi, -8(%rbp)
	cvtsi2sdq	-8(%rbp), %xmm0
	callq	_log10
	addq	$16, %rsp
	popq	%rbp
	retq
	.cfi_endproc
                                        ## -- End function
	.globl	__Z10powerofTwoi        ## -- Begin function _Z10powerofTwoi
	.p2align	4, 0x90
__Z10powerofTwoi:                       ## @_Z10powerofTwoi
	.cfi_startproc
## %bb.0:
	pushq	%rbp
	.cfi_def_cfa_offset 16
	.cfi_offset %rbp, -16
	movq	%rsp, %rbp
	.cfi_def_cfa_register %rbp
	xorl	%eax, %eax
                                        ## kill: def $al killed $al killed $eax
	movl	%edi, -4(%rbp)
	cmpl	$0, -4(%rbp)
	movb	%al, -5(%rbp)           ## 1-byte Spill
	je	LBB169_2
## %bb.1:
	movl	-4(%rbp), %eax
	movl	-4(%rbp), %ecx
	addl	$-1, %ecx
	movl	%ecx, -4(%rbp)
	andl	%ecx, %eax
	cmpl	$0, %eax
	setne	%dl
	xorb	$-1, %dl
	movb	%dl, -5(%rbp)           ## 1-byte Spill
LBB169_2:
	movb	-5(%rbp), %al           ## 1-byte Reload
	andb	$1, %al
	movzbl	%al, %eax
	popq	%rbp
	retq
	.cfi_endproc
                                        ## -- End function
	.globl	__Z7reverseRNSt3__112basic_stringIcNS_11char_traitsIcEENS_9allocatorIcEEEE ## -- Begin function _Z7reverseRNSt3__112basic_stringIcNS_11char_traitsIcEENS_9allocatorIcEEEE
	.p2align	4, 0x90
__Z7reverseRNSt3__112basic_stringIcNS_11char_traitsIcEENS_9allocatorIcEEEE: ## @_Z7reverseRNSt3__112basic_stringIcNS_11char_traitsIcEENS_9allocatorIcEEEE
	.cfi_startproc
## %bb.0:
	pushq	%rbp
	.cfi_def_cfa_offset 16
	.cfi_offset %rbp, -16
	movq	%rsp, %rbp
	.cfi_def_cfa_register %rbp
	subq	$80, %rsp
	movq	%rdi, %rax
	movq	%rdi, %rcx
	movq	%rcx, -8(%rbp)
	movq	%rsi, -16(%rbp)
	movl	$0, -20(%rbp)
	movq	%rdi, -32(%rbp)         ## 8-byte Spill
	movq	%rax, -40(%rbp)         ## 8-byte Spill
LBB170_1:                               ## =>This Inner Loop Header: Depth=1
	movslq	-20(%rbp), %rax
	movq	-16(%rbp), %rdi
	movq	%rax, -48(%rbp)         ## 8-byte Spill
	callq	__ZNKSt3__112basic_stringIcNS_11char_traitsIcEENS_9allocatorIcEEE6lengthEv
	shrq	$1, %rax
	movq	-48(%rbp), %rcx         ## 8-byte Reload
	cmpq	%rax, %rcx
	jae	LBB170_4
## %bb.2:                               ##   in Loop: Header=BB170_1 Depth=1
	movq	-16(%rbp), %rdi
	movslq	-20(%rbp), %rsi
	callq	__ZNSt3__112basic_stringIcNS_11char_traitsIcEENS_9allocatorIcEEEixEm
	movb	(%rax), %cl
	movb	%cl, -21(%rbp)
	movq	-16(%rbp), %rdi
	movq	-16(%rbp), %rax
	movq	%rdi, -56(%rbp)         ## 8-byte Spill
	movq	%rax, %rdi
	callq	__ZNKSt3__112basic_stringIcNS_11char_traitsIcEENS_9allocatorIcEEE4sizeEv
	movslq	-20(%rbp), %rdx
	subq	%rdx, %rax
	subq	$1, %rax
	movq	-56(%rbp), %rdi         ## 8-byte Reload
	movq	%rax, %rsi
	callq	__ZNSt3__112basic_stringIcNS_11char_traitsIcEENS_9allocatorIcEEEixEm
	movb	(%rax), %cl
	movq	-16(%rbp), %rdi
	movslq	-20(%rbp), %rsi
	movb	%cl, -57(%rbp)          ## 1-byte Spill
	callq	__ZNSt3__112basic_stringIcNS_11char_traitsIcEENS_9allocatorIcEEEixEm
	movb	-57(%rbp), %cl          ## 1-byte Reload
	movb	%cl, (%rax)
	movb	-21(%rbp), %cl
	movq	-16(%rbp), %rdi
	movq	-16(%rbp), %rax
	movq	%rdi, -72(%rbp)         ## 8-byte Spill
	movq	%rax, %rdi
	movb	%cl, -73(%rbp)          ## 1-byte Spill
	callq	__ZNKSt3__112basic_stringIcNS_11char_traitsIcEENS_9allocatorIcEEE4sizeEv
	movslq	-20(%rbp), %rdx
	subq	%rdx, %rax
	subq	$1, %rax
	movq	-72(%rbp), %rdi         ## 8-byte Reload
	movq	%rax, %rsi
	callq	__ZNSt3__112basic_stringIcNS_11char_traitsIcEENS_9allocatorIcEEEixEm
	movb	-73(%rbp), %cl          ## 1-byte Reload
	movb	%cl, (%rax)
## %bb.3:                               ##   in Loop: Header=BB170_1 Depth=1
	movl	-20(%rbp), %eax
	addl	$1, %eax
	movl	%eax, -20(%rbp)
	jmp	LBB170_1
LBB170_4:
	movq	-16(%rbp), %rsi
	movq	-32(%rbp), %rdi         ## 8-byte Reload
	callq	__ZNSt3__112basic_stringIcNS_11char_traitsIcEENS_9allocatorIcEEEC1ERKS5_
	movq	-40(%rbp), %rax         ## 8-byte Reload
	addq	$80, %rsp
	popq	%rbp
	retq
	.cfi_endproc
                                        ## -- End function
	.p2align	4, 0x90         ## -- Begin function _ZNKSt3__112basic_stringIcNS_11char_traitsIcEENS_9allocatorIcEEE6lengthEv
__ZNKSt3__112basic_stringIcNS_11char_traitsIcEENS_9allocatorIcEEE6lengthEv: ## @_ZNKSt3__112basic_stringIcNS_11char_traitsIcEENS_9allocatorIcEEE6lengthEv
	.cfi_startproc
## %bb.0:
	pushq	%rbp
	.cfi_def_cfa_offset 16
	.cfi_offset %rbp, -16
	movq	%rsp, %rbp
	.cfi_def_cfa_register %rbp
	subq	$16, %rsp
	movq	%rdi, -8(%rbp)
	movq	-8(%rbp), %rdi
	callq	__ZNKSt3__112basic_stringIcNS_11char_traitsIcEENS_9allocatorIcEEE4sizeEv
	addq	$16, %rsp
	popq	%rbp
	retq
	.cfi_endproc
                                        ## -- End function
	.p2align	4, 0x90         ## -- Begin function _ZNSt3__112basic_stringIcNS_11char_traitsIcEENS_9allocatorIcEEEixEm
__ZNSt3__112basic_stringIcNS_11char_traitsIcEENS_9allocatorIcEEEixEm: ## @_ZNSt3__112basic_stringIcNS_11char_traitsIcEENS_9allocatorIcEEEixEm
	.cfi_startproc
## %bb.0:
	pushq	%rbp
	.cfi_def_cfa_offset 16
	.cfi_offset %rbp, -16
	movq	%rsp, %rbp
	.cfi_def_cfa_register %rbp
	subq	$16, %rsp
	movq	%rdi, -8(%rbp)
	movq	%rsi, -16(%rbp)
	movq	-8(%rbp), %rdi
	callq	__ZNSt3__112basic_stringIcNS_11char_traitsIcEENS_9allocatorIcEEE13__get_pointerEv
	addq	-16(%rbp), %rax
	addq	$16, %rsp
	popq	%rbp
	retq
	.cfi_endproc
                                        ## -- End function
	.p2align	4, 0x90         ## -- Begin function _ZNKSt3__112basic_stringIcNS_11char_traitsIcEENS_9allocatorIcEEE4sizeEv
__ZNKSt3__112basic_stringIcNS_11char_traitsIcEENS_9allocatorIcEEE4sizeEv: ## @_ZNKSt3__112basic_stringIcNS_11char_traitsIcEENS_9allocatorIcEEE4sizeEv
	.cfi_startproc
## %bb.0:
	pushq	%rbp
	.cfi_def_cfa_offset 16
	.cfi_offset %rbp, -16
	movq	%rsp, %rbp
	.cfi_def_cfa_register %rbp
	subq	$32, %rsp
	movq	%rdi, -8(%rbp)
	movq	-8(%rbp), %rax
	movq	%rax, %rdi
	movq	%rax, -16(%rbp)         ## 8-byte Spill
	callq	__ZNKSt3__112basic_stringIcNS_11char_traitsIcEENS_9allocatorIcEEE9__is_longEv
	testb	$1, %al
	jne	LBB173_1
	jmp	LBB173_2
LBB173_1:
	movq	-16(%rbp), %rdi         ## 8-byte Reload
	callq	__ZNKSt3__112basic_stringIcNS_11char_traitsIcEENS_9allocatorIcEEE15__get_long_sizeEv
	movq	%rax, -24(%rbp)         ## 8-byte Spill
	jmp	LBB173_3
LBB173_2:
	movq	-16(%rbp), %rdi         ## 8-byte Reload
	callq	__ZNKSt3__112basic_stringIcNS_11char_traitsIcEENS_9allocatorIcEEE16__get_short_sizeEv
	movq	%rax, -24(%rbp)         ## 8-byte Spill
LBB173_3:
	movq	-24(%rbp), %rax         ## 8-byte Reload
	addq	$32, %rsp
	popq	%rbp
	retq
	.cfi_endproc
                                        ## -- End function
	.globl	__Z11countSetBiti       ## -- Begin function _Z11countSetBiti
	.p2align	4, 0x90
__Z11countSetBiti:                      ## @_Z11countSetBiti
	.cfi_startproc
## %bb.0:
	pushq	%rbp
	.cfi_def_cfa_offset 16
	.cfi_offset %rbp, -16
	movq	%rsp, %rbp
	.cfi_def_cfa_register %rbp
	movl	%edi, -12(%rbp)
	cmpl	$0, -12(%rbp)
	jne	LBB174_2
## %bb.1:
	movq	$0, -8(%rbp)
	jmp	LBB174_6
LBB174_2:
	movq	$0, -24(%rbp)
LBB174_3:                               ## =>This Inner Loop Header: Depth=1
	cmpl	$0, -12(%rbp)
	je	LBB174_5
## %bb.4:                               ##   in Loop: Header=BB174_3 Depth=1
	movl	-12(%rbp), %eax
	movl	-12(%rbp), %ecx
	subl	$1, %ecx
	andl	%ecx, %eax
	movl	%eax, -12(%rbp)
	movq	-24(%rbp), %rdx
	addq	$1, %rdx
	movq	%rdx, -24(%rbp)
	jmp	LBB174_3
LBB174_5:
	movq	-24(%rbp), %rax
	movq	%rax, -8(%rbp)
LBB174_6:
	movq	-8(%rbp), %rax
	popq	%rbp
	retq
	.cfi_endproc
                                        ## -- End function
	.globl	__Z15isBitSetAtIndexim  ## -- Begin function _Z15isBitSetAtIndexim
	.p2align	4, 0x90
__Z15isBitSetAtIndexim:                 ## @_Z15isBitSetAtIndexim
	.cfi_startproc
## %bb.0:
	pushq	%rbp
	.cfi_def_cfa_offset 16
	.cfi_offset %rbp, -16
	movq	%rsp, %rbp
	.cfi_def_cfa_register %rbp
	movl	%edi, -4(%rbp)
	movq	%rsi, -16(%rbp)
	movl	-4(%rbp), %eax
	movq	-16(%rbp), %rcx
	subq	$1, %rcx
                                        ## kill: def $ecx killed $ecx killed $rcx
                                        ## kill: def $cl killed $ecx
	movl	$1, %edx
	shll	%cl, %edx
	andl	%edx, %eax
	cmpl	$0, %eax
	setne	%cl
	andb	$1, %cl
	movzbl	%cl, %eax
	popq	%rbp
	retq
	.cfi_endproc
                                        ## -- End function
	.globl	__Z6fillerONSt3__112basic_stringIcNS_11char_traitsIcEENS_9allocatorIcEEEEmc ## -- Begin function _Z6fillerONSt3__112basic_stringIcNS_11char_traitsIcEENS_9allocatorIcEEEEmc
	.p2align	4, 0x90
__Z6fillerONSt3__112basic_stringIcNS_11char_traitsIcEENS_9allocatorIcEEEEmc: ## @_Z6fillerONSt3__112basic_stringIcNS_11char_traitsIcEENS_9allocatorIcEEEEmc
Lfunc_begin21:
	.cfi_startproc
	.cfi_personality 155, ___gxx_personality_v0
	.cfi_lsda 16, Lexception21
## %bb.0:
	pushq	%rbp
	.cfi_def_cfa_offset 16
	.cfi_offset %rbp, -16
	movq	%rsp, %rbp
	.cfi_def_cfa_register %rbp
	subq	$96, %rsp
                                        ## kill: def $cl killed $cl killed $ecx
	movq	%rdi, %rax
	movq	%rdi, %r8
	movq	%r8, -8(%rbp)
	movq	%rsi, -16(%rbp)
	movq	%rdx, -24(%rbp)
	movb	%cl, -25(%rbp)
	movq	-16(%rbp), %rdx
	movq	%rdi, -88(%rbp)         ## 8-byte Spill
	movq	%rdx, %rdi
	movq	%rax, -96(%rbp)         ## 8-byte Spill
	callq	__ZNKSt3__112basic_stringIcNS_11char_traitsIcEENS_9allocatorIcEEE6lengthEv
	cmpq	-24(%rbp), %rax
	jbe	LBB176_2
## %bb.1:
	movq	-16(%rbp), %rsi
	movq	-88(%rbp), %rdi         ## 8-byte Reload
	callq	__ZNSt3__112basic_stringIcNS_11char_traitsIcEENS_9allocatorIcEEEC1ERKS5_
	jmp	LBB176_10
LBB176_2:
	movq	-16(%rbp), %rdi
	callq	__ZNKSt3__112basic_stringIcNS_11char_traitsIcEENS_9allocatorIcEEE6lengthEv
                                        ## kill: def $eax killed $eax killed $rax
	movl	%eax, -32(%rbp)
	leaq	-56(%rbp), %rdi
	leaq	L_.str.39(%rip), %rsi
	callq	__ZNSt3__112basic_stringIcNS_11char_traitsIcEENS_9allocatorIcEEEC1IDnEEPKc
	movl	$0, -60(%rbp)
LBB176_3:                               ## =>This Inner Loop Header: Depth=1
	movslq	-60(%rbp), %rax
	movq	-24(%rbp), %rcx
	movslq	-32(%rbp), %rdx
	subq	%rdx, %rcx
	cmpq	%rcx, %rax
	jae	LBB176_8
## %bb.4:                               ##   in Loop: Header=BB176_3 Depth=1
	movsbl	-25(%rbp), %esi
Ltmp202:
	leaq	-56(%rbp), %rdi
	callq	__ZNSt3__112basic_stringIcNS_11char_traitsIcEENS_9allocatorIcEEEpLEc
Ltmp203:
	jmp	LBB176_5
LBB176_5:                               ##   in Loop: Header=BB176_3 Depth=1
	jmp	LBB176_6
LBB176_6:                               ##   in Loop: Header=BB176_3 Depth=1
	movl	-60(%rbp), %eax
	addl	$1, %eax
	movl	%eax, -60(%rbp)
	jmp	LBB176_3
LBB176_7:
Ltmp204:
                                        ## kill: def $edx killed $edx killed $rdx
	movq	%rax, -72(%rbp)
	movl	%edx, -76(%rbp)
	leaq	-56(%rbp), %rdi
	callq	__ZNSt3__112basic_stringIcNS_11char_traitsIcEENS_9allocatorIcEEED1Ev
	jmp	LBB176_11
LBB176_8:
	movq	-16(%rbp), %rdx
Ltmp200:
	leaq	-56(%rbp), %rsi
	movq	-88(%rbp), %rdi         ## 8-byte Reload
	callq	__ZNSt3__1plIcNS_11char_traitsIcEENS_9allocatorIcEEEENS_12basic_stringIT_T0_T1_EERKS9_SB_
Ltmp201:
	jmp	LBB176_9
LBB176_9:
	leaq	-56(%rbp), %rdi
	callq	__ZNSt3__112basic_stringIcNS_11char_traitsIcEENS_9allocatorIcEEED1Ev
LBB176_10:
	movq	-96(%rbp), %rax         ## 8-byte Reload
	addq	$96, %rsp
	popq	%rbp
	retq
LBB176_11:
	movq	-72(%rbp), %rdi
	callq	__Unwind_Resume
	ud2
Lfunc_end21:
	.cfi_endproc
	.section	__TEXT,__gcc_except_tab
	.p2align	2
GCC_except_table176:
Lexception21:
	.byte	255                     ## @LPStart Encoding = omit
	.byte	255                     ## @TType Encoding = omit
	.byte	1                       ## Call site Encoding = uleb128
	.uleb128 Lcst_end21-Lcst_begin21
Lcst_begin21:
	.uleb128 Lfunc_begin21-Lfunc_begin21 ## >> Call Site 1 <<
	.uleb128 Ltmp202-Lfunc_begin21  ##   Call between Lfunc_begin21 and Ltmp202
	.byte	0                       ##     has no landing pad
	.byte	0                       ##   On action: cleanup
	.uleb128 Ltmp202-Lfunc_begin21  ## >> Call Site 2 <<
	.uleb128 Ltmp201-Ltmp202        ##   Call between Ltmp202 and Ltmp201
	.uleb128 Ltmp204-Lfunc_begin21  ##     jumps to Ltmp204
	.byte	0                       ##   On action: cleanup
	.uleb128 Ltmp201-Lfunc_begin21  ## >> Call Site 3 <<
	.uleb128 Lfunc_end21-Ltmp201    ##   Call between Ltmp201 and Lfunc_end21
	.byte	0                       ##     has no landing pad
	.byte	0                       ##   On action: cleanup
Lcst_end21:
	.p2align	2
                                        ## -- End function
	.section	__TEXT,__text,regular,pure_instructions
	.p2align	4, 0x90         ## -- Begin function _ZNSt3__112basic_stringIcNS_11char_traitsIcEENS_9allocatorIcEEEpLEc
__ZNSt3__112basic_stringIcNS_11char_traitsIcEENS_9allocatorIcEEEpLEc: ## @_ZNSt3__112basic_stringIcNS_11char_traitsIcEENS_9allocatorIcEEEpLEc
	.cfi_startproc
## %bb.0:
	pushq	%rbp
	.cfi_def_cfa_offset 16
	.cfi_offset %rbp, -16
	movq	%rsp, %rbp
	.cfi_def_cfa_register %rbp
	subq	$32, %rsp
                                        ## kill: def $sil killed $sil killed $esi
	movq	%rdi, -8(%rbp)
	movb	%sil, -9(%rbp)
	movq	-8(%rbp), %rax
	movq	%rax, %rdi
	movsbl	-9(%rbp), %esi
	movq	%rax, -24(%rbp)         ## 8-byte Spill
	callq	__ZNSt3__112basic_stringIcNS_11char_traitsIcEENS_9allocatorIcEEE9push_backEc
	movq	-24(%rbp), %rax         ## 8-byte Reload
	addq	$32, %rsp
	popq	%rbp
	retq
	.cfi_endproc
                                        ## -- End function
	.globl	__ZNSt3__1plIcNS_11char_traitsIcEENS_9allocatorIcEEEENS_12basic_stringIT_T0_T1_EERKS9_SB_ ## -- Begin function _ZNSt3__1plIcNS_11char_traitsIcEENS_9allocatorIcEEEENS_12basic_stringIT_T0_T1_EERKS9_SB_
	.weak_definition	__ZNSt3__1plIcNS_11char_traitsIcEENS_9allocatorIcEEEENS_12basic_stringIT_T0_T1_EERKS9_SB_
	.p2align	4, 0x90
__ZNSt3__1plIcNS_11char_traitsIcEENS_9allocatorIcEEEENS_12basic_stringIT_T0_T1_EERKS9_SB_: ## @_ZNSt3__1plIcNS_11char_traitsIcEENS_9allocatorIcEEEENS_12basic_stringIT_T0_T1_EERKS9_SB_
Lfunc_begin22:
	.cfi_startproc
	.cfi_personality 155, ___gxx_personality_v0
	.cfi_lsda 16, Lexception22
## %bb.0:
	pushq	%rbp
	.cfi_def_cfa_offset 16
	.cfi_offset %rbp, -16
	movq	%rsp, %rbp
	.cfi_def_cfa_register %rbp
	subq	$96, %rsp
	movq	%rdi, %rax
	movq	%rdi, -8(%rbp)
	movq	%rsi, -16(%rbp)
	movq	%rdx, -24(%rbp)
	movb	$0, -25(%rbp)
	movq	-16(%rbp), %rcx
	movq	%rdi, -80(%rbp)         ## 8-byte Spill
	movq	%rcx, %rdi
	movq	%rax, -88(%rbp)         ## 8-byte Spill
	callq	__ZNKSt3__112basic_stringIcNS_11char_traitsIcEENS_9allocatorIcEEE13get_allocatorEv
	leaq	-32(%rbp), %rsi
	movq	-80(%rbp), %rdi         ## 8-byte Reload
	callq	__ZNSt3__112basic_stringIcNS_11char_traitsIcEENS_9allocatorIcEEEC1ERKS4_
	movq	-16(%rbp), %rdi
	callq	__ZNKSt3__112basic_stringIcNS_11char_traitsIcEENS_9allocatorIcEEE4sizeEv
	movq	%rax, -48(%rbp)
	movq	-24(%rbp), %rdi
	callq	__ZNKSt3__112basic_stringIcNS_11char_traitsIcEENS_9allocatorIcEEE4sizeEv
	movq	%rax, -56(%rbp)
	movq	-16(%rbp), %rdi
	callq	__ZNKSt3__112basic_stringIcNS_11char_traitsIcEENS_9allocatorIcEEE4dataEv
	movq	-48(%rbp), %rcx
	movq	-56(%rbp), %rdx
	movq	%rcx, %rsi
	addq	%rdx, %rsi
Ltmp205:
	movq	-80(%rbp), %rdi         ## 8-byte Reload
	movq	%rsi, -96(%rbp)         ## 8-byte Spill
	movq	%rax, %rsi
	movq	%rcx, %rdx
	movq	-96(%rbp), %rcx         ## 8-byte Reload
	callq	__ZNSt3__112basic_stringIcNS_11char_traitsIcEENS_9allocatorIcEEE6__initEPKcmm
Ltmp206:
	jmp	LBB178_1
LBB178_1:
	movq	-24(%rbp), %rdi
	callq	__ZNKSt3__112basic_stringIcNS_11char_traitsIcEENS_9allocatorIcEEE4dataEv
	movq	-56(%rbp), %rdx
Ltmp207:
	movq	-80(%rbp), %rdi         ## 8-byte Reload
	movq	%rax, %rsi
	callq	__ZNSt3__112basic_stringIcNS_11char_traitsIcEENS_9allocatorIcEEE6appendEPKcm
Ltmp208:
	jmp	LBB178_2
LBB178_2:
	movb	$1, -25(%rbp)
	testb	$1, -25(%rbp)
	jne	LBB178_5
	jmp	LBB178_4
LBB178_3:
Ltmp209:
                                        ## kill: def $edx killed $edx killed $rdx
	movq	%rax, -64(%rbp)
	movl	%edx, -68(%rbp)
	movq	-80(%rbp), %rdi         ## 8-byte Reload
	callq	__ZNSt3__112basic_stringIcNS_11char_traitsIcEENS_9allocatorIcEEED1Ev
	jmp	LBB178_6
LBB178_4:
	movq	-80(%rbp), %rdi         ## 8-byte Reload
	callq	__ZNSt3__112basic_stringIcNS_11char_traitsIcEENS_9allocatorIcEEED1Ev
LBB178_5:
	movq	-88(%rbp), %rax         ## 8-byte Reload
	addq	$96, %rsp
	popq	%rbp
	retq
LBB178_6:
	movq	-64(%rbp), %rdi
	callq	__Unwind_Resume
	ud2
Lfunc_end22:
	.cfi_endproc
	.section	__TEXT,__gcc_except_tab
	.p2align	2
GCC_except_table178:
Lexception22:
	.byte	255                     ## @LPStart Encoding = omit
